   1              		.cpu cortex-m4
   2              		.arch armv7e-m
   3              		.fpu fpv4-sp-d16
   4              		.eabi_attribute 27, 1
   5              		.eabi_attribute 20, 1
   6              		.eabi_attribute 21, 1
   7              		.eabi_attribute 23, 3
   8              		.eabi_attribute 24, 1
   9              		.eabi_attribute 25, 1
  10              		.eabi_attribute 26, 1
  11              		.eabi_attribute 30, 1
  12              		.eabi_attribute 34, 1
  13              		.eabi_attribute 18, 4
  14              		.file	"USBController_XMC4000.c"
  15              		.text
  16              	.Ltext0:
  17              		.cfi_sections	.debug_frame
  18              		.section	.text.USBD_HandleEP0_Stall,"ax",%progbits
  19              		.align	1
  20              		.global	USBD_HandleEP0_Stall
  21              		.syntax unified
  22              		.thumb
  23              		.thumb_func
  25              	USBD_HandleEP0_Stall:
  26              	.LFB188:
  27              		.file 1 "/opt/XMClib/XMC_Peripheral_Library_v2.1.16/ThirdPartyLibraries/USBlib/USB/Core/XMC4000/US
   1:/opt/XMClib/XMC_Peripheral_Library_v2.1.16/ThirdPartyLibraries/USBlib/USB/Core/XMC4000/USBController_XMC4000.c **** /*
   2:/opt/XMClib/XMC_Peripheral_Library_v2.1.16/ThirdPartyLibraries/USBlib/USB/Core/XMC4000/USBController_XMC4000.c ****              LUFA Library
   3:/opt/XMClib/XMC_Peripheral_Library_v2.1.16/ThirdPartyLibraries/USBlib/USB/Core/XMC4000/USBController_XMC4000.c ****      Copyright (C) Dean Camera, 2014.
   4:/opt/XMClib/XMC_Peripheral_Library_v2.1.16/ThirdPartyLibraries/USBlib/USB/Core/XMC4000/USBController_XMC4000.c **** 
   5:/opt/XMClib/XMC_Peripheral_Library_v2.1.16/ThirdPartyLibraries/USBlib/USB/Core/XMC4000/USBController_XMC4000.c ****   dean [at] fourwalledcubicle [dot] com
   6:/opt/XMClib/XMC_Peripheral_Library_v2.1.16/ThirdPartyLibraries/USBlib/USB/Core/XMC4000/USBController_XMC4000.c ****            www.lufa-lib.org
   7:/opt/XMClib/XMC_Peripheral_Library_v2.1.16/ThirdPartyLibraries/USBlib/USB/Core/XMC4000/USBController_XMC4000.c **** */
   8:/opt/XMClib/XMC_Peripheral_Library_v2.1.16/ThirdPartyLibraries/USBlib/USB/Core/XMC4000/USBController_XMC4000.c **** 
   9:/opt/XMClib/XMC_Peripheral_Library_v2.1.16/ThirdPartyLibraries/USBlib/USB/Core/XMC4000/USBController_XMC4000.c **** /*
  10:/opt/XMClib/XMC_Peripheral_Library_v2.1.16/ThirdPartyLibraries/USBlib/USB/Core/XMC4000/USBController_XMC4000.c ****   Copyright 2014  Dean Camera (dean [at] fourwalledcubicle [dot] com)
  11:/opt/XMClib/XMC_Peripheral_Library_v2.1.16/ThirdPartyLibraries/USBlib/USB/Core/XMC4000/USBController_XMC4000.c **** 
  12:/opt/XMClib/XMC_Peripheral_Library_v2.1.16/ThirdPartyLibraries/USBlib/USB/Core/XMC4000/USBController_XMC4000.c ****   Permission to use, copy, modify, distribute, and sell this
  13:/opt/XMClib/XMC_Peripheral_Library_v2.1.16/ThirdPartyLibraries/USBlib/USB/Core/XMC4000/USBController_XMC4000.c ****   software and its documentation for any purpose is hereby granted
  14:/opt/XMClib/XMC_Peripheral_Library_v2.1.16/ThirdPartyLibraries/USBlib/USB/Core/XMC4000/USBController_XMC4000.c ****   without fee, provided that the above copyright notice appear in
  15:/opt/XMClib/XMC_Peripheral_Library_v2.1.16/ThirdPartyLibraries/USBlib/USB/Core/XMC4000/USBController_XMC4000.c ****   all copies and that both that the copyright notice and this
  16:/opt/XMClib/XMC_Peripheral_Library_v2.1.16/ThirdPartyLibraries/USBlib/USB/Core/XMC4000/USBController_XMC4000.c ****   permission notice and warranty disclaimer appear in supporting
  17:/opt/XMClib/XMC_Peripheral_Library_v2.1.16/ThirdPartyLibraries/USBlib/USB/Core/XMC4000/USBController_XMC4000.c ****   documentation, and that the name of the author not be used in
  18:/opt/XMClib/XMC_Peripheral_Library_v2.1.16/ThirdPartyLibraries/USBlib/USB/Core/XMC4000/USBController_XMC4000.c ****   advertising or publicity pertaining to distribution of the
  19:/opt/XMClib/XMC_Peripheral_Library_v2.1.16/ThirdPartyLibraries/USBlib/USB/Core/XMC4000/USBController_XMC4000.c ****   software without specific, written prior permission.
  20:/opt/XMClib/XMC_Peripheral_Library_v2.1.16/ThirdPartyLibraries/USBlib/USB/Core/XMC4000/USBController_XMC4000.c **** 
  21:/opt/XMClib/XMC_Peripheral_Library_v2.1.16/ThirdPartyLibraries/USBlib/USB/Core/XMC4000/USBController_XMC4000.c ****   The author disclaims all warranties with regard to this
  22:/opt/XMClib/XMC_Peripheral_Library_v2.1.16/ThirdPartyLibraries/USBlib/USB/Core/XMC4000/USBController_XMC4000.c ****   software, including all implied warranties of merchantability
  23:/opt/XMClib/XMC_Peripheral_Library_v2.1.16/ThirdPartyLibraries/USBlib/USB/Core/XMC4000/USBController_XMC4000.c ****   and fitness.  In no event shall the author be liable for any
  24:/opt/XMClib/XMC_Peripheral_Library_v2.1.16/ThirdPartyLibraries/USBlib/USB/Core/XMC4000/USBController_XMC4000.c ****   special, indirect or consequential damages or any damages
  25:/opt/XMClib/XMC_Peripheral_Library_v2.1.16/ThirdPartyLibraries/USBlib/USB/Core/XMC4000/USBController_XMC4000.c ****   whatsoever resulting from loss of use, data or profits, whether
  26:/opt/XMClib/XMC_Peripheral_Library_v2.1.16/ThirdPartyLibraries/USBlib/USB/Core/XMC4000/USBController_XMC4000.c ****   in an action of contract, negligence or other tortious action,
  27:/opt/XMClib/XMC_Peripheral_Library_v2.1.16/ThirdPartyLibraries/USBlib/USB/Core/XMC4000/USBController_XMC4000.c ****   arising out of or in connection with the use or performance of
  28:/opt/XMClib/XMC_Peripheral_Library_v2.1.16/ThirdPartyLibraries/USBlib/USB/Core/XMC4000/USBController_XMC4000.c ****   this software.
  29:/opt/XMClib/XMC_Peripheral_Library_v2.1.16/ThirdPartyLibraries/USBlib/USB/Core/XMC4000/USBController_XMC4000.c **** */
  30:/opt/XMClib/XMC_Peripheral_Library_v2.1.16/ThirdPartyLibraries/USBlib/USB/Core/XMC4000/USBController_XMC4000.c **** 
  31:/opt/XMClib/XMC_Peripheral_Library_v2.1.16/ThirdPartyLibraries/USBlib/USB/Core/XMC4000/USBController_XMC4000.c **** #include "../../Common/Common.h"
  32:/opt/XMClib/XMC_Peripheral_Library_v2.1.16/ThirdPartyLibraries/USBlib/USB/Core/XMC4000/USBController_XMC4000.c **** 
  33:/opt/XMClib/XMC_Peripheral_Library_v2.1.16/ThirdPartyLibraries/USBlib/USB/Core/XMC4000/USBController_XMC4000.c **** #define  __INCLUDE_FROM_USB_DRIVER
  34:/opt/XMClib/XMC_Peripheral_Library_v2.1.16/ThirdPartyLibraries/USBlib/USB/Core/XMC4000/USBController_XMC4000.c **** #define  __INCLUDE_FROM_USB_CONTROLLER_C
  35:/opt/XMClib/XMC_Peripheral_Library_v2.1.16/ThirdPartyLibraries/USBlib/USB/Core/XMC4000/USBController_XMC4000.c **** #include "../USBController.h"
  36:/opt/XMClib/XMC_Peripheral_Library_v2.1.16/ThirdPartyLibraries/USBlib/USB/Core/XMC4000/USBController_XMC4000.c **** 
  37:/opt/XMClib/XMC_Peripheral_Library_v2.1.16/ThirdPartyLibraries/USBlib/USB/Core/XMC4000/USBController_XMC4000.c **** USB_Device_t device;
  38:/opt/XMClib/XMC_Peripheral_Library_v2.1.16/ThirdPartyLibraries/USBlib/USB/Core/XMC4000/USBController_XMC4000.c **** 
  39:/opt/XMClib/XMC_Peripheral_Library_v2.1.16/ThirdPartyLibraries/USBlib/USB/Core/XMC4000/USBController_XMC4000.c **** uint8_t endpoint0_in_buffer[256];
  40:/opt/XMClib/XMC_Peripheral_Library_v2.1.16/ThirdPartyLibraries/USBlib/USB/Core/XMC4000/USBController_XMC4000.c **** uint8_t endpoint0_out_buffer[256];
  41:/opt/XMClib/XMC_Peripheral_Library_v2.1.16/ThirdPartyLibraries/USBlib/USB/Core/XMC4000/USBController_XMC4000.c **** 
  42:/opt/XMClib/XMC_Peripheral_Library_v2.1.16/ThirdPartyLibraries/USBlib/USB/Core/XMC4000/USBController_XMC4000.c **** /**
  43:/opt/XMClib/XMC_Peripheral_Library_v2.1.16/ThirdPartyLibraries/USBlib/USB/Core/XMC4000/USBController_XMC4000.c ****  * \ingroup USBD_Core_Driver
  44:/opt/XMClib/XMC_Peripheral_Library_v2.1.16/ThirdPartyLibraries/USBlib/USB/Core/XMC4000/USBController_XMC4000.c ****  * \defgroup EP0_Handling Handling of EP0 Control Request
  45:/opt/XMClib/XMC_Peripheral_Library_v2.1.16/ThirdPartyLibraries/USBlib/USB/Core/XMC4000/USBController_XMC4000.c ****  * \brief
  46:/opt/XMClib/XMC_Peripheral_Library_v2.1.16/ThirdPartyLibraries/USBlib/USB/Core/XMC4000/USBController_XMC4000.c ****  * @{
  47:/opt/XMClib/XMC_Peripheral_Library_v2.1.16/ThirdPartyLibraries/USBlib/USB/Core/XMC4000/USBController_XMC4000.c ****  */
  48:/opt/XMClib/XMC_Peripheral_Library_v2.1.16/ThirdPartyLibraries/USBlib/USB/Core/XMC4000/USBController_XMC4000.c **** 
  49:/opt/XMClib/XMC_Peripheral_Library_v2.1.16/ThirdPartyLibraries/USBlib/USB/Core/XMC4000/USBController_XMC4000.c **** /**
  50:/opt/XMClib/XMC_Peripheral_Library_v2.1.16/ThirdPartyLibraries/USBlib/USB/Core/XMC4000/USBController_XMC4000.c ****  * \brief Handle protocol stall on EP0
  51:/opt/XMClib/XMC_Peripheral_Library_v2.1.16/ThirdPartyLibraries/USBlib/USB/Core/XMC4000/USBController_XMC4000.c ****  *
  52:/opt/XMClib/XMC_Peripheral_Library_v2.1.16/ThirdPartyLibraries/USBlib/USB/Core/XMC4000/USBController_XMC4000.c ****  * Stalls EP0 and then restarts a new transfer including setting state to \ref IDLE.
  53:/opt/XMClib/XMC_Peripheral_Library_v2.1.16/ThirdPartyLibraries/USBlib/USB/Core/XMC4000/USBController_XMC4000.c ****  */
  54:/opt/XMClib/XMC_Peripheral_Library_v2.1.16/ThirdPartyLibraries/USBlib/USB/Core/XMC4000/USBController_XMC4000.c **** void USBD_HandleEP0_Stall() {
  28              		.loc 1 54 29 view -0
  29              		.cfi_startproc
  30              		@ args = 0, pretend = 0, frame = 0
  31              		@ frame_needed = 0, uses_anonymous_args = 0
  32 0000 10B5     		push	{r4, lr}
  33              	.LCFI0:
  34              		.cfi_def_cfa_offset 8
  35              		.cfi_offset 4, -8
  36              		.cfi_offset 14, -4
  55:/opt/XMClib/XMC_Peripheral_Library_v2.1.16/ThirdPartyLibraries/USBlib/USB/Core/XMC4000/USBController_XMC4000.c **** 	/* When we stall ep0 as protocol stall, we go back into idle state and start a new read */
  56:/opt/XMClib/XMC_Peripheral_Library_v2.1.16/ThirdPartyLibraries/USBlib/USB/Core/XMC4000/USBController_XMC4000.c **** 	device.Driver->EndpointStall(ENDPOINT_DIR_IN | 0,1);
  37              		.loc 1 56 2 view .LVU1
  38              		.loc 1 56 8 is_stmt 0 view .LVU2
  39 0002 074C     		ldr	r4, .L3
  40              		.loc 1 56 15 view .LVU3
  41 0004 2368     		ldr	r3, [r4]
  42              		.loc 1 56 2 view .LVU4
  43 0006 5B6A     		ldr	r3, [r3, #36]
  44 0008 0121     		movs	r1, #1
  45 000a 8020     		movs	r0, #128
  46 000c 9847     		blx	r3
  47              	.LVL0:
  57:/opt/XMClib/XMC_Peripheral_Library_v2.1.16/ThirdPartyLibraries/USBlib/USB/Core/XMC4000/USBController_XMC4000.c **** 	device.EP0_State = IDLE;
  48              		.loc 1 57 2 is_stmt 1 view .LVU5
  49              		.loc 1 57 19 is_stmt 0 view .LVU6
  50 000e 0123     		movs	r3, #1
  51 0010 84F83B31 		strb	r3, [r4, #315]
  58:/opt/XMClib/XMC_Peripheral_Library_v2.1.16/ThirdPartyLibraries/USBlib/USB/Core/XMC4000/USBController_XMC4000.c **** 	device.Driver->EndpointReadStart(0,24);
  52              		.loc 1 58 2 is_stmt 1 view .LVU7
  53              		.loc 1 58 15 is_stmt 0 view .LVU8
  54 0014 2368     		ldr	r3, [r4]
  55              		.loc 1 58 2 view .LVU9
  56 0016 9B6A     		ldr	r3, [r3, #40]
  57 0018 1821     		movs	r1, #24
  58 001a 0020     		movs	r0, #0
  59 001c 9847     		blx	r3
  60              	.LVL1:
  59:/opt/XMClib/XMC_Peripheral_Library_v2.1.16/ThirdPartyLibraries/USBlib/USB/Core/XMC4000/USBController_XMC4000.c **** }
  61              		.loc 1 59 1 view .LVU10
  62 001e 10BD     		pop	{r4, pc}
  63              	.L4:
  64              		.align	2
  65              	.L3:
  66 0020 00000000 		.word	.LANCHOR0
  67              		.cfi_endproc
  68              	.LFE188:
  70              		.section	.text.USB_Device_ProcessControlRequest,"ax",%progbits
  71              		.align	1
  72              		.global	USB_Device_ProcessControlRequest
  73              		.syntax unified
  74              		.thumb
  75              		.thumb_func
  77              	USB_Device_ProcessControlRequest:
  78              	.LFB189:
  60:/opt/XMClib/XMC_Peripheral_Library_v2.1.16/ThirdPartyLibraries/USBlib/USB/Core/XMC4000/USBController_XMC4000.c **** 
  61:/opt/XMClib/XMC_Peripheral_Library_v2.1.16/ThirdPartyLibraries/USBlib/USB/Core/XMC4000/USBController_XMC4000.c **** /**
  62:/opt/XMClib/XMC_Peripheral_Library_v2.1.16/ThirdPartyLibraries/USBlib/USB/Core/XMC4000/USBController_XMC4000.c ****  * \brief Handle device request on endpoint 0
  63:/opt/XMClib/XMC_Peripheral_Library_v2.1.16/ThirdPartyLibraries/USBlib/USB/Core/XMC4000/USBController_XMC4000.c ****  *
  64:/opt/XMClib/XMC_Peripheral_Library_v2.1.16/ThirdPartyLibraries/USBlib/USB/Core/XMC4000/USBController_XMC4000.c ****  * By default any USB device has to support a subset of device control request defiened by
  65:/opt/XMClib/XMC_Peripheral_Library_v2.1.16/ThirdPartyLibraries/USBlib/USB/Core/XMC4000/USBController_XMC4000.c ****  * the USB specification. All request required by the spec are handle within this function.
  66:/opt/XMClib/XMC_Peripheral_Library_v2.1.16/ThirdPartyLibraries/USBlib/USB/Core/XMC4000/USBController_XMC4000.c ****  * Before a handling of the request is done by this function, it dispatches it to the
  67:/opt/XMClib/XMC_Peripheral_Library_v2.1.16/ThirdPartyLibraries/USBlib/USB/Core/XMC4000/USBController_XMC4000.c ****  * \ref EVENT_USB_Device_ControlRequest function. There the user has the chance to complete
  68:/opt/XMClib/XMC_Peripheral_Library_v2.1.16/ThirdPartyLibraries/USBlib/USB/Core/XMC4000/USBController_XMC4000.c ****  * some custom request or override the handling of this function. If the user has handled the
  69:/opt/XMClib/XMC_Peripheral_Library_v2.1.16/ThirdPartyLibraries/USBlib/USB/Core/XMC4000/USBController_XMC4000.c ****  * request, he has to call \ref Endpoint_ClearSETUP.
  70:/opt/XMClib/XMC_Peripheral_Library_v2.1.16/ThirdPartyLibraries/USBlib/USB/Core/XMC4000/USBController_XMC4000.c ****  *
  71:/opt/XMClib/XMC_Peripheral_Library_v2.1.16/ThirdPartyLibraries/USBlib/USB/Core/XMC4000/USBController_XMC4000.c ****  */
  72:/opt/XMClib/XMC_Peripheral_Library_v2.1.16/ThirdPartyLibraries/USBlib/USB/Core/XMC4000/USBController_XMC4000.c **** void USB_Device_ProcessControlRequest() {
  79              		.loc 1 72 41 is_stmt 1 view -0
  80              		.cfi_startproc
  81              		@ args = 0, pretend = 0, frame = 8
  82              		@ frame_needed = 0, uses_anonymous_args = 0
  83 0000 30B5     		push	{r4, r5, lr}
  84              	.LCFI1:
  85              		.cfi_def_cfa_offset 12
  86              		.cfi_offset 4, -12
  87              		.cfi_offset 5, -8
  88              		.cfi_offset 14, -4
  89 0002 83B0     		sub	sp, sp, #12
  90              	.LCFI2:
  91              		.cfi_def_cfa_offset 24
  73:/opt/XMClib/XMC_Peripheral_Library_v2.1.16/ThirdPartyLibraries/USBlib/USB/Core/XMC4000/USBController_XMC4000.c **** 	uint32_t length = 0,ret;
  92              		.loc 1 73 2 view .LVU12
  93              	.LVL2:
  74:/opt/XMClib/XMC_Peripheral_Library_v2.1.16/ThirdPartyLibraries/USBlib/USB/Core/XMC4000/USBController_XMC4000.c **** 	uint16_t status = 0;
  94              		.loc 1 74 2 view .LVU13
  95              		.loc 1 74 11 is_stmt 0 view .LVU14
  96 0004 0023     		movs	r3, #0
  97 0006 ADF80230 		strh	r3, [sp, #2]	@ movhi
  75:/opt/XMClib/XMC_Peripheral_Library_v2.1.16/ThirdPartyLibraries/USBlib/USB/Core/XMC4000/USBController_XMC4000.c **** 	void *buffer;
  98              		.loc 1 75 2 is_stmt 1 view .LVU15
  76:/opt/XMClib/XMC_Peripheral_Library_v2.1.16/ThirdPartyLibraries/USBlib/USB/Core/XMC4000/USBController_XMC4000.c **** 	uint8_t Value;
  99              		.loc 1 76 2 view .LVU16
  77:/opt/XMClib/XMC_Peripheral_Library_v2.1.16/ThirdPartyLibraries/USBlib/USB/Core/XMC4000/USBController_XMC4000.c **** 	uint16_t Index;
 100              		.loc 1 77 2 view .LVU17
  78:/opt/XMClib/XMC_Peripheral_Library_v2.1.16/ThirdPartyLibraries/USBlib/USB/Core/XMC4000/USBController_XMC4000.c **** 
  79:/opt/XMClib/XMC_Peripheral_Library_v2.1.16/ThirdPartyLibraries/USBlib/USB/Core/XMC4000/USBController_XMC4000.c **** 	Value = USB_ControlRequest.wValue & 0x00FF;
 101              		.loc 1 79 2 view .LVU18
 102              		.loc 1 79 28 is_stmt 0 view .LVU19
 103 000a 954B     		ldr	r3, .L54
 104 000c 5C88     		ldrh	r4, [r3, #2]	@ unaligned
 105              	.LVL3:
  80:/opt/XMClib/XMC_Peripheral_Library_v2.1.16/ThirdPartyLibraries/USBlib/USB/Core/XMC4000/USBController_XMC4000.c **** 
  81:/opt/XMClib/XMC_Peripheral_Library_v2.1.16/ThirdPartyLibraries/USBlib/USB/Core/XMC4000/USBController_XMC4000.c **** 	/* Handling of descriptors */
  82:/opt/XMClib/XMC_Peripheral_Library_v2.1.16/ThirdPartyLibraries/USBlib/USB/Core/XMC4000/USBController_XMC4000.c **** 	EVENT_USB_Device_ControlRequest();
 106              		.loc 1 82 2 is_stmt 1 view .LVU20
 107 000e FFF7FEFF 		bl	EVENT_USB_Device_ControlRequest
 108              	.LVL4:
  83:/opt/XMClib/XMC_Peripheral_Library_v2.1.16/ThirdPartyLibraries/USBlib/USB/Core/XMC4000/USBController_XMC4000.c **** 	if (!device.IsSetupRecieved)
 109              		.loc 1 83 2 view .LVU21
 110              		.loc 1 83 13 is_stmt 0 view .LVU22
 111 0012 944B     		ldr	r3, .L54+4
 112 0014 93F83E31 		ldrb	r3, [r3, #318]	@ zero_extendqisi2
 113              		.loc 1 83 5 view .LVU23
 114 0018 13F0020F 		tst	r3, #2
 115 001c 57D0     		beq	.L5
  79:/opt/XMClib/XMC_Peripheral_Library_v2.1.16/ThirdPartyLibraries/USBlib/USB/Core/XMC4000/USBController_XMC4000.c **** 
 116              		.loc 1 79 8 view .LVU24
 117 001e E4B2     		uxtb	r4, r4
  84:/opt/XMClib/XMC_Peripheral_Library_v2.1.16/ThirdPartyLibraries/USBlib/USB/Core/XMC4000/USBController_XMC4000.c **** 		return;
  85:/opt/XMClib/XMC_Peripheral_Library_v2.1.16/ThirdPartyLibraries/USBlib/USB/Core/XMC4000/USBController_XMC4000.c **** 
  86:/opt/XMClib/XMC_Peripheral_Library_v2.1.16/ThirdPartyLibraries/USBlib/USB/Core/XMC4000/USBController_XMC4000.c **** 	/* default request handling */
  87:/opt/XMClib/XMC_Peripheral_Library_v2.1.16/ThirdPartyLibraries/USBlib/USB/Core/XMC4000/USBController_XMC4000.c **** 	switch (USB_ControlRequest.bRequest) {
 118              		.loc 1 87 2 is_stmt 1 view .LVU25
 119              		.loc 1 87 28 is_stmt 0 view .LVU26
 120 0020 8F4B     		ldr	r3, .L54
 121              		.loc 1 87 2 view .LVU27
 122 0022 5B78     		ldrb	r3, [r3, #1]	@ zero_extendqisi2
 123 0024 0C2B     		cmp	r3, #12
 124 0026 00F27381 		bhi	.L8
 125 002a DFE813F0 		tbh	[pc, r3, lsl #1]
 126              	.L10:
 127 002e 8800     		.2byte	(.L20-.L10)/2
 128 0030 0D00     		.2byte	(.L19-.L10)/2
 129 0032 7101     		.2byte	(.L8-.L10)/2
 130 0034 1F01     		.2byte	(.L18-.L10)/2
 131 0036 7101     		.2byte	(.L8-.L10)/2
 132 0038 D900     		.2byte	(.L17-.L10)/2
 133 003a 5200     		.2byte	(.L16-.L10)/2
 134 003c FF00     		.2byte	(.L15-.L10)/2
 135 003e 4100     		.2byte	(.L14-.L10)/2
 136 0040 E800     		.2byte	(.L13-.L10)/2
 137 0042 6F00     		.2byte	(.L12-.L10)/2
 138 0044 0201     		.2byte	(.L11-.L10)/2
 139 0046 6E01     		.2byte	(.L9-.L10)/2
 140              		.p2align 1
 141              	.L19:
  88:/opt/XMClib/XMC_Peripheral_Library_v2.1.16/ThirdPartyLibraries/USBlib/USB/Core/XMC4000/USBController_XMC4000.c **** 	case REQ_ClearFeature:
  89:/opt/XMClib/XMC_Peripheral_Library_v2.1.16/ThirdPartyLibraries/USBlib/USB/Core/XMC4000/USBController_XMC4000.c **** 		if ((USB_ControlRequest.bmRequestType & 0x3) == REQREC_ENDPOINT) {
 142              		.loc 1 89 3 is_stmt 1 view .LVU28
 143              		.loc 1 89 26 is_stmt 0 view .LVU29
 144 0048 854B     		ldr	r3, .L54
 145 004a 1B78     		ldrb	r3, [r3]	@ zero_extendqisi2
 146 004c 03F00303 		and	r3, r3, #3
 147              		.loc 1 89 6 view .LVU30
 148 0050 022B     		cmp	r3, #2
 149 0052 08D0     		beq	.L43
  90:/opt/XMClib/XMC_Peripheral_Library_v2.1.16/ThirdPartyLibraries/USBlib/USB/Core/XMC4000/USBController_XMC4000.c **** 			Index = USB_ControlRequest.wIndex & ENDPOINT_EPNUM_MASK;
  91:/opt/XMClib/XMC_Peripheral_Library_v2.1.16/ThirdPartyLibraries/USBlib/USB/Core/XMC4000/USBController_XMC4000.c **** 			if ((USB_DeviceState == DEVICE_STATE_Configured || USB_ControlRequest.wIndex==0)  &&
  92:/opt/XMClib/XMC_Peripheral_Library_v2.1.16/ThirdPartyLibraries/USBlib/USB/Core/XMC4000/USBController_XMC4000.c **** 					device.Endpoints[Index].IsConfigured==1) {
  93:/opt/XMClib/XMC_Peripheral_Library_v2.1.16/ThirdPartyLibraries/USBlib/USB/Core/XMC4000/USBController_XMC4000.c **** 				device.Endpoints[Index].IsHalted = 0;
  94:/opt/XMClib/XMC_Peripheral_Library_v2.1.16/ThirdPartyLibraries/USBlib/USB/Core/XMC4000/USBController_XMC4000.c **** 				device.Driver->EndpointStall(USB_ControlRequest.wIndex,0);
  95:/opt/XMClib/XMC_Peripheral_Library_v2.1.16/ThirdPartyLibraries/USBlib/USB/Core/XMC4000/USBController_XMC4000.c **** 			} else {
  96:/opt/XMClib/XMC_Peripheral_Library_v2.1.16/ThirdPartyLibraries/USBlib/USB/Core/XMC4000/USBController_XMC4000.c **** 				USBD_HandleEP0_Stall();
  97:/opt/XMClib/XMC_Peripheral_Library_v2.1.16/ThirdPartyLibraries/USBlib/USB/Core/XMC4000/USBController_XMC4000.c **** 			}
  98:/opt/XMClib/XMC_Peripheral_Library_v2.1.16/ThirdPartyLibraries/USBlib/USB/Core/XMC4000/USBController_XMC4000.c **** 			break;
  99:/opt/XMClib/XMC_Peripheral_Library_v2.1.16/ThirdPartyLibraries/USBlib/USB/Core/XMC4000/USBController_XMC4000.c **** 		}
 100:/opt/XMClib/XMC_Peripheral_Library_v2.1.16/ThirdPartyLibraries/USBlib/USB/Core/XMC4000/USBController_XMC4000.c **** 		if ((USB_ControlRequest.bmRequestType & 0x3) == REQREC_DEVICE) {
 150              		.loc 1 100 3 is_stmt 1 view .LVU31
 151              		.loc 1 100 6 is_stmt 0 view .LVU32
 152 0054 4BBB     		cbnz	r3, .L25
 101:/opt/XMClib/XMC_Peripheral_Library_v2.1.16/ThirdPartyLibraries/USBlib/USB/Core/XMC4000/USBController_XMC4000.c **** 			 device.RemoteWakeUp = 0;
 153              		.loc 1 101 5 is_stmt 1 view .LVU33
 154              		.loc 1 101 25 is_stmt 0 view .LVU34
 155 0056 834B     		ldr	r3, .L54+4
 156 0058 93F83E21 		ldrb	r2, [r3, #318]	@ zero_extendqisi2
 157 005c 6FF38202 		bfc	r2, #2, #1
 158 0060 83F83E21 		strb	r2, [r3, #318]
 102:/opt/XMClib/XMC_Peripheral_Library_v2.1.16/ThirdPartyLibraries/USBlib/USB/Core/XMC4000/USBController_XMC4000.c **** 			 break;
 159              		.loc 1 102 5 is_stmt 1 view .LVU35
 160 0064 2CE0     		b	.L24
 161              	.L43:
  90:/opt/XMClib/XMC_Peripheral_Library_v2.1.16/ThirdPartyLibraries/USBlib/USB/Core/XMC4000/USBController_XMC4000.c **** 			Index = USB_ControlRequest.wIndex & ENDPOINT_EPNUM_MASK;
 162              		.loc 1 90 4 view .LVU36
  90:/opt/XMClib/XMC_Peripheral_Library_v2.1.16/ThirdPartyLibraries/USBlib/USB/Core/XMC4000/USBController_XMC4000.c **** 			Index = USB_ControlRequest.wIndex & ENDPOINT_EPNUM_MASK;
 163              		.loc 1 90 30 is_stmt 0 view .LVU37
 164 0066 7E4B     		ldr	r3, .L54
 165 0068 9888     		ldrh	r0, [r3, #4]	@ unaligned
 166              	.LVL5:
  91:/opt/XMClib/XMC_Peripheral_Library_v2.1.16/ThirdPartyLibraries/USBlib/USB/Core/XMC4000/USBController_XMC4000.c **** 					device.Endpoints[Index].IsConfigured==1) {
 167              		.loc 1 91 4 is_stmt 1 view .LVU38
  91:/opt/XMClib/XMC_Peripheral_Library_v2.1.16/ThirdPartyLibraries/USBlib/USB/Core/XMC4000/USBController_XMC4000.c **** 					device.Endpoints[Index].IsConfigured==1) {
 168              		.loc 1 91 25 is_stmt 0 view .LVU39
 169 006a 7F4B     		ldr	r3, .L54+8
 170 006c 1B78     		ldrb	r3, [r3]	@ zero_extendqisi2
 171 006e DBB2     		uxtb	r3, r3
  91:/opt/XMClib/XMC_Peripheral_Library_v2.1.16/ThirdPartyLibraries/USBlib/USB/Core/XMC4000/USBController_XMC4000.c **** 					device.Endpoints[Index].IsConfigured==1) {
 172              		.loc 1 91 7 view .LVU40
 173 0070 042B     		cmp	r3, #4
 174 0072 00D0     		beq	.L22
  91:/opt/XMClib/XMC_Peripheral_Library_v2.1.16/ThirdPartyLibraries/USBlib/USB/Core/XMC4000/USBController_XMC4000.c **** 					device.Endpoints[Index].IsConfigured==1) {
 175              		.loc 1 91 52 discriminator 2 view .LVU41
 176 0074 48B9     		cbnz	r0, .L23
 177              	.L22:
  92:/opt/XMClib/XMC_Peripheral_Library_v2.1.16/ThirdPartyLibraries/USBlib/USB/Core/XMC4000/USBController_XMC4000.c **** 				device.Endpoints[Index].IsHalted = 0;
 178              		.loc 1 92 29 discriminator 3 view .LVU42
 179 0076 00F00F02 		and	r2, r0, #15
 180 007a 7A4B     		ldr	r3, .L54+4
 181 007c 2C21     		movs	r1, #44
 182 007e 01FB0233 		mla	r3, r1, r2, r3
 183 0082 1B7A     		ldrb	r3, [r3, #8]	@ zero_extendqisi2
  91:/opt/XMClib/XMC_Peripheral_Library_v2.1.16/ThirdPartyLibraries/USBlib/USB/Core/XMC4000/USBController_XMC4000.c **** 					device.Endpoints[Index].IsConfigured==1) {
 184              		.loc 1 91 86 discriminator 3 view .LVU43
 185 0084 13F0010F 		tst	r3, #1
 186 0088 02D1     		bne	.L44
 187              	.L23:
  96:/opt/XMClib/XMC_Peripheral_Library_v2.1.16/ThirdPartyLibraries/USBlib/USB/Core/XMC4000/USBController_XMC4000.c **** 			}
 188              		.loc 1 96 5 is_stmt 1 view .LVU44
 189 008a FFF7FEFF 		bl	USBD_HandleEP0_Stall
 190              	.LVL6:
  96:/opt/XMClib/XMC_Peripheral_Library_v2.1.16/ThirdPartyLibraries/USBlib/USB/Core/XMC4000/USBController_XMC4000.c **** 			}
 191              		.loc 1 96 5 is_stmt 0 view .LVU45
 192 008e 17E0     		b	.L24
 193              	.LVL7:
 194              	.L44:
  93:/opt/XMClib/XMC_Peripheral_Library_v2.1.16/ThirdPartyLibraries/USBlib/USB/Core/XMC4000/USBController_XMC4000.c **** 				device.Driver->EndpointStall(USB_ControlRequest.wIndex,0);
 195              		.loc 1 93 5 is_stmt 1 view .LVU46
  93:/opt/XMClib/XMC_Peripheral_Library_v2.1.16/ThirdPartyLibraries/USBlib/USB/Core/XMC4000/USBController_XMC4000.c **** 				device.Driver->EndpointStall(USB_ControlRequest.wIndex,0);
 196              		.loc 1 93 38 is_stmt 0 view .LVU47
 197 0090 744B     		ldr	r3, .L54+4
 198 0092 01FB0232 		mla	r2, r1, r2, r3
 199 0096 117A     		ldrb	r1, [r2, #8]	@ zero_extendqisi2
 200 0098 6FF38201 		bfc	r1, #2, #1
 201 009c 1172     		strb	r1, [r2, #8]
  94:/opt/XMClib/XMC_Peripheral_Library_v2.1.16/ThirdPartyLibraries/USBlib/USB/Core/XMC4000/USBController_XMC4000.c **** 			} else {
 202              		.loc 1 94 5 is_stmt 1 view .LVU48
  94:/opt/XMClib/XMC_Peripheral_Library_v2.1.16/ThirdPartyLibraries/USBlib/USB/Core/XMC4000/USBController_XMC4000.c **** 			} else {
 203              		.loc 1 94 18 is_stmt 0 view .LVU49
 204 009e 1B68     		ldr	r3, [r3]
  94:/opt/XMClib/XMC_Peripheral_Library_v2.1.16/ThirdPartyLibraries/USBlib/USB/Core/XMC4000/USBController_XMC4000.c **** 			} else {
 205              		.loc 1 94 5 view .LVU50
 206 00a0 5B6A     		ldr	r3, [r3, #36]
 207 00a2 0021     		movs	r1, #0
 208 00a4 C0B2     		uxtb	r0, r0
 209 00a6 9847     		blx	r3
 210              	.LVL8:
  94:/opt/XMClib/XMC_Peripheral_Library_v2.1.16/ThirdPartyLibraries/USBlib/USB/Core/XMC4000/USBController_XMC4000.c **** 			} else {
 211              		.loc 1 94 5 view .LVU51
 212 00a8 0AE0     		b	.L24
 213              	.L25:
 103:/opt/XMClib/XMC_Peripheral_Library_v2.1.16/ThirdPartyLibraries/USBlib/USB/Core/XMC4000/USBController_XMC4000.c **** 		}
 104:/opt/XMClib/XMC_Peripheral_Library_v2.1.16/ThirdPartyLibraries/USBlib/USB/Core/XMC4000/USBController_XMC4000.c **** 		USBD_HandleEP0_Stall();
 214              		.loc 1 104 3 is_stmt 1 view .LVU52
 215 00aa FFF7FEFF 		bl	USBD_HandleEP0_Stall
 216              	.LVL9:
 105:/opt/XMClib/XMC_Peripheral_Library_v2.1.16/ThirdPartyLibraries/USBlib/USB/Core/XMC4000/USBController_XMC4000.c **** 		break;
 217              		.loc 1 105 3 view .LVU53
 218 00ae 07E0     		b	.L24
 219              	.L14:
 106:/opt/XMClib/XMC_Peripheral_Library_v2.1.16/ThirdPartyLibraries/USBlib/USB/Core/XMC4000/USBController_XMC4000.c **** 
 107:/opt/XMClib/XMC_Peripheral_Library_v2.1.16/ThirdPartyLibraries/USBlib/USB/Core/XMC4000/USBController_XMC4000.c **** 	case REQ_GetConfiguration:
 108:/opt/XMClib/XMC_Peripheral_Library_v2.1.16/ThirdPartyLibraries/USBlib/USB/Core/XMC4000/USBController_XMC4000.c **** 		device.Driver->EndpointWrite(0,&device.Configuration,1);
 220              		.loc 1 108 3 view .LVU54
 221 00b0 6C49     		ldr	r1, .L54+4
 222              		.loc 1 108 16 is_stmt 0 view .LVU55
 223 00b2 0B68     		ldr	r3, [r1]
 224              		.loc 1 108 3 view .LVU56
 225 00b4 1B6B     		ldr	r3, [r3, #48]
 226 00b6 0122     		movs	r2, #1
 227 00b8 01F23911 		addw	r1, r1, #313
 228 00bc 0020     		movs	r0, #0
 229 00be 9847     		blx	r3
 230              	.LVL10:
 109:/opt/XMClib/XMC_Peripheral_Library_v2.1.16/ThirdPartyLibraries/USBlib/USB/Core/XMC4000/USBController_XMC4000.c **** 		break;
 231              		.loc 1 109 3 is_stmt 1 view .LVU57
 232              	.L24:
 110:/opt/XMClib/XMC_Peripheral_Library_v2.1.16/ThirdPartyLibraries/USBlib/USB/Core/XMC4000/USBController_XMC4000.c **** 
 111:/opt/XMClib/XMC_Peripheral_Library_v2.1.16/ThirdPartyLibraries/USBlib/USB/Core/XMC4000/USBController_XMC4000.c **** 	case REQ_GetDescriptor:
 112:/opt/XMClib/XMC_Peripheral_Library_v2.1.16/ThirdPartyLibraries/USBlib/USB/Core/XMC4000/USBController_XMC4000.c **** 		length = CALLBACK_USB_GetDescriptor(USB_ControlRequest.wValue,USB_ControlRequest.wIndex,(void*)&b
 113:/opt/XMClib/XMC_Peripheral_Library_v2.1.16/ThirdPartyLibraries/USBlib/USB/Core/XMC4000/USBController_XMC4000.c **** 		if (length==0)
 114:/opt/XMClib/XMC_Peripheral_Library_v2.1.16/ThirdPartyLibraries/USBlib/USB/Core/XMC4000/USBController_XMC4000.c **** 			USBD_HandleEP0_Stall();
 115:/opt/XMClib/XMC_Peripheral_Library_v2.1.16/ThirdPartyLibraries/USBlib/USB/Core/XMC4000/USBController_XMC4000.c **** 		else {
 116:/opt/XMClib/XMC_Peripheral_Library_v2.1.16/ThirdPartyLibraries/USBlib/USB/Core/XMC4000/USBController_XMC4000.c **** 			length = length < USB_ControlRequest.wLength ?
 117:/opt/XMClib/XMC_Peripheral_Library_v2.1.16/ThirdPartyLibraries/USBlib/USB/Core/XMC4000/USBController_XMC4000.c **** 					length : USB_ControlRequest.wLength;
 118:/opt/XMClib/XMC_Peripheral_Library_v2.1.16/ThirdPartyLibraries/USBlib/USB/Core/XMC4000/USBController_XMC4000.c **** 			ret = device.Driver->EndpointWrite(0,buffer,length);
 119:/opt/XMClib/XMC_Peripheral_Library_v2.1.16/ThirdPartyLibraries/USBlib/USB/Core/XMC4000/USBController_XMC4000.c **** 			device.Endpoints[0].InDataLeft = length - ret;
 120:/opt/XMClib/XMC_Peripheral_Library_v2.1.16/ThirdPartyLibraries/USBlib/USB/Core/XMC4000/USBController_XMC4000.c **** 			device.Endpoints[0].InDataBuffer = (uint8_t *)((uint32_t)buffer + ret);
 121:/opt/XMClib/XMC_Peripheral_Library_v2.1.16/ThirdPartyLibraries/USBlib/USB/Core/XMC4000/USBController_XMC4000.c **** 		}
 122:/opt/XMClib/XMC_Peripheral_Library_v2.1.16/ThirdPartyLibraries/USBlib/USB/Core/XMC4000/USBController_XMC4000.c **** 		break;
 123:/opt/XMClib/XMC_Peripheral_Library_v2.1.16/ThirdPartyLibraries/USBlib/USB/Core/XMC4000/USBController_XMC4000.c **** 
 124:/opt/XMClib/XMC_Peripheral_Library_v2.1.16/ThirdPartyLibraries/USBlib/USB/Core/XMC4000/USBController_XMC4000.c **** 	case REQ_GetInterface:
 125:/opt/XMClib/XMC_Peripheral_Library_v2.1.16/ThirdPartyLibraries/USBlib/USB/Core/XMC4000/USBController_XMC4000.c **** 		if (USB_DeviceState == DEVICE_STATE_Configured) {
 126:/opt/XMClib/XMC_Peripheral_Library_v2.1.16/ThirdPartyLibraries/USBlib/USB/Core/XMC4000/USBController_XMC4000.c **** 			device.Driver->EndpointWrite(0,&device.InterfaceSettings[USB_ControlRequest.wIndex],1);
 127:/opt/XMClib/XMC_Peripheral_Library_v2.1.16/ThirdPartyLibraries/USBlib/USB/Core/XMC4000/USBController_XMC4000.c **** 			break;
 128:/opt/XMClib/XMC_Peripheral_Library_v2.1.16/ThirdPartyLibraries/USBlib/USB/Core/XMC4000/USBController_XMC4000.c **** 		}
 129:/opt/XMClib/XMC_Peripheral_Library_v2.1.16/ThirdPartyLibraries/USBlib/USB/Core/XMC4000/USBController_XMC4000.c **** 		if (USB_DeviceState == DEVICE_STATE_Addressed) {
 130:/opt/XMClib/XMC_Peripheral_Library_v2.1.16/ThirdPartyLibraries/USBlib/USB/Core/XMC4000/USBController_XMC4000.c **** 			USBD_HandleEP0_Stall();
 131:/opt/XMClib/XMC_Peripheral_Library_v2.1.16/ThirdPartyLibraries/USBlib/USB/Core/XMC4000/USBController_XMC4000.c **** 			break;
 132:/opt/XMClib/XMC_Peripheral_Library_v2.1.16/ThirdPartyLibraries/USBlib/USB/Core/XMC4000/USBController_XMC4000.c **** 		}
 133:/opt/XMClib/XMC_Peripheral_Library_v2.1.16/ThirdPartyLibraries/USBlib/USB/Core/XMC4000/USBController_XMC4000.c **** 		break;
 134:/opt/XMClib/XMC_Peripheral_Library_v2.1.16/ThirdPartyLibraries/USBlib/USB/Core/XMC4000/USBController_XMC4000.c **** 
 135:/opt/XMClib/XMC_Peripheral_Library_v2.1.16/ThirdPartyLibraries/USBlib/USB/Core/XMC4000/USBController_XMC4000.c **** 	case REQ_GetStatus:
 136:/opt/XMClib/XMC_Peripheral_Library_v2.1.16/ThirdPartyLibraries/USBlib/USB/Core/XMC4000/USBController_XMC4000.c **** 		if ((USB_ControlRequest.bmRequestType & 0x3) == REQREC_DEVICE) {
 137:/opt/XMClib/XMC_Peripheral_Library_v2.1.16/ThirdPartyLibraries/USBlib/USB/Core/XMC4000/USBController_XMC4000.c **** 			status = device.RemoteWakeUp << 1 | device.SelfPowered;
 138:/opt/XMClib/XMC_Peripheral_Library_v2.1.16/ThirdPartyLibraries/USBlib/USB/Core/XMC4000/USBController_XMC4000.c **** 			device.Driver->EndpointWrite(0,(uint8_t*)&status,2);
 139:/opt/XMClib/XMC_Peripheral_Library_v2.1.16/ThirdPartyLibraries/USBlib/USB/Core/XMC4000/USBController_XMC4000.c **** 			break;
 140:/opt/XMClib/XMC_Peripheral_Library_v2.1.16/ThirdPartyLibraries/USBlib/USB/Core/XMC4000/USBController_XMC4000.c **** 		}
 141:/opt/XMClib/XMC_Peripheral_Library_v2.1.16/ThirdPartyLibraries/USBlib/USB/Core/XMC4000/USBController_XMC4000.c **** 		if ((USB_ControlRequest.bmRequestType & 0x3) == REQREC_INTERFACE && USB_DeviceState == DEVICE_STA
 142:/opt/XMClib/XMC_Peripheral_Library_v2.1.16/ThirdPartyLibraries/USBlib/USB/Core/XMC4000/USBController_XMC4000.c **** 			status = 0;
 143:/opt/XMClib/XMC_Peripheral_Library_v2.1.16/ThirdPartyLibraries/USBlib/USB/Core/XMC4000/USBController_XMC4000.c **** 			device.Driver->EndpointWrite(0,(uint8_t*)&status,2);
 144:/opt/XMClib/XMC_Peripheral_Library_v2.1.16/ThirdPartyLibraries/USBlib/USB/Core/XMC4000/USBController_XMC4000.c **** 			break;
 145:/opt/XMClib/XMC_Peripheral_Library_v2.1.16/ThirdPartyLibraries/USBlib/USB/Core/XMC4000/USBController_XMC4000.c **** 		}
 146:/opt/XMClib/XMC_Peripheral_Library_v2.1.16/ThirdPartyLibraries/USBlib/USB/Core/XMC4000/USBController_XMC4000.c **** 		/* print endpoint status only when(or):
 147:/opt/XMClib/XMC_Peripheral_Library_v2.1.16/ThirdPartyLibraries/USBlib/USB/Core/XMC4000/USBController_XMC4000.c **** 		 * - Device_Address_state and ep == 0
 148:/opt/XMClib/XMC_Peripheral_Library_v2.1.16/ThirdPartyLibraries/USBlib/USB/Core/XMC4000/USBController_XMC4000.c **** 		 * - Device_configured_state and ep is configured
 149:/opt/XMClib/XMC_Peripheral_Library_v2.1.16/ThirdPartyLibraries/USBlib/USB/Core/XMC4000/USBController_XMC4000.c **** 		 */
 150:/opt/XMClib/XMC_Peripheral_Library_v2.1.16/ThirdPartyLibraries/USBlib/USB/Core/XMC4000/USBController_XMC4000.c **** 		if ((USB_ControlRequest.bmRequestType & 0x3) == REQREC_ENDPOINT) {
 151:/opt/XMClib/XMC_Peripheral_Library_v2.1.16/ThirdPartyLibraries/USBlib/USB/Core/XMC4000/USBController_XMC4000.c **** 			Index = USB_ControlRequest.wIndex & 0xFF & ENDPOINT_EPNUM_MASK;
 152:/opt/XMClib/XMC_Peripheral_Library_v2.1.16/ThirdPartyLibraries/USBlib/USB/Core/XMC4000/USBController_XMC4000.c **** 			if ((USB_DeviceState == DEVICE_STATE_Configured || USB_ControlRequest.wIndex==0) &&
 153:/opt/XMClib/XMC_Peripheral_Library_v2.1.16/ThirdPartyLibraries/USBlib/USB/Core/XMC4000/USBController_XMC4000.c **** 					device.Endpoints[Index].IsConfigured==1) {
 154:/opt/XMClib/XMC_Peripheral_Library_v2.1.16/ThirdPartyLibraries/USBlib/USB/Core/XMC4000/USBController_XMC4000.c **** 				status = device.Endpoints[Index].IsHalted;
 155:/opt/XMClib/XMC_Peripheral_Library_v2.1.16/ThirdPartyLibraries/USBlib/USB/Core/XMC4000/USBController_XMC4000.c **** 				device.Driver->EndpointWrite(0,(uint8_t*)&status,2);
 156:/opt/XMClib/XMC_Peripheral_Library_v2.1.16/ThirdPartyLibraries/USBlib/USB/Core/XMC4000/USBController_XMC4000.c **** 				break;
 157:/opt/XMClib/XMC_Peripheral_Library_v2.1.16/ThirdPartyLibraries/USBlib/USB/Core/XMC4000/USBController_XMC4000.c **** 			}
 158:/opt/XMClib/XMC_Peripheral_Library_v2.1.16/ThirdPartyLibraries/USBlib/USB/Core/XMC4000/USBController_XMC4000.c **** 		}
 159:/opt/XMClib/XMC_Peripheral_Library_v2.1.16/ThirdPartyLibraries/USBlib/USB/Core/XMC4000/USBController_XMC4000.c **** 		/* default stall */
 160:/opt/XMClib/XMC_Peripheral_Library_v2.1.16/ThirdPartyLibraries/USBlib/USB/Core/XMC4000/USBController_XMC4000.c **** 		USBD_HandleEP0_Stall();
 161:/opt/XMClib/XMC_Peripheral_Library_v2.1.16/ThirdPartyLibraries/USBlib/USB/Core/XMC4000/USBController_XMC4000.c **** 		break;
 162:/opt/XMClib/XMC_Peripheral_Library_v2.1.16/ThirdPartyLibraries/USBlib/USB/Core/XMC4000/USBController_XMC4000.c **** 
 163:/opt/XMClib/XMC_Peripheral_Library_v2.1.16/ThirdPartyLibraries/USBlib/USB/Core/XMC4000/USBController_XMC4000.c **** 	case REQ_SetAddress:
 164:/opt/XMClib/XMC_Peripheral_Library_v2.1.16/ThirdPartyLibraries/USBlib/USB/Core/XMC4000/USBController_XMC4000.c **** 		if (Value == 0)
 165:/opt/XMClib/XMC_Peripheral_Library_v2.1.16/ThirdPartyLibraries/USBlib/USB/Core/XMC4000/USBController_XMC4000.c **** 			USB_DeviceState = DEVICE_STATE_Default;
 166:/opt/XMClib/XMC_Peripheral_Library_v2.1.16/ThirdPartyLibraries/USBlib/USB/Core/XMC4000/USBController_XMC4000.c **** 		else
 167:/opt/XMClib/XMC_Peripheral_Library_v2.1.16/ThirdPartyLibraries/USBlib/USB/Core/XMC4000/USBController_XMC4000.c **** 			USB_DeviceState = DEVICE_STATE_Addressed;
 168:/opt/XMClib/XMC_Peripheral_Library_v2.1.16/ThirdPartyLibraries/USBlib/USB/Core/XMC4000/USBController_XMC4000.c **** 		device.Driver->DeviceSetAddress(Value,XMC_USBD_SET_ADDRESS_STAGE_SETUP);
 169:/opt/XMClib/XMC_Peripheral_Library_v2.1.16/ThirdPartyLibraries/USBlib/USB/Core/XMC4000/USBController_XMC4000.c **** 		break;
 170:/opt/XMClib/XMC_Peripheral_Library_v2.1.16/ThirdPartyLibraries/USBlib/USB/Core/XMC4000/USBController_XMC4000.c **** 
 171:/opt/XMClib/XMC_Peripheral_Library_v2.1.16/ThirdPartyLibraries/USBlib/USB/Core/XMC4000/USBController_XMC4000.c **** 	case REQ_SetConfiguration:
 172:/opt/XMClib/XMC_Peripheral_Library_v2.1.16/ThirdPartyLibraries/USBlib/USB/Core/XMC4000/USBController_XMC4000.c **** 		/* Regardless the state update the configuration to unconfigure endpoints */
 173:/opt/XMClib/XMC_Peripheral_Library_v2.1.16/ThirdPartyLibraries/USBlib/USB/Core/XMC4000/USBController_XMC4000.c **** 		device.Configuration = Value;
 174:/opt/XMClib/XMC_Peripheral_Library_v2.1.16/ThirdPartyLibraries/USBlib/USB/Core/XMC4000/USBController_XMC4000.c **** 		EVENT_USB_Device_ConfigurationChanged();
 175:/opt/XMClib/XMC_Peripheral_Library_v2.1.16/ThirdPartyLibraries/USBlib/USB/Core/XMC4000/USBController_XMC4000.c **** 		/* when config 0 is choosen, we are back in address state */
 176:/opt/XMClib/XMC_Peripheral_Library_v2.1.16/ThirdPartyLibraries/USBlib/USB/Core/XMC4000/USBController_XMC4000.c **** 		if (Value == 0) {
 177:/opt/XMClib/XMC_Peripheral_Library_v2.1.16/ThirdPartyLibraries/USBlib/USB/Core/XMC4000/USBController_XMC4000.c **** 			USB_DeviceState = DEVICE_STATE_Addressed;
 178:/opt/XMClib/XMC_Peripheral_Library_v2.1.16/ThirdPartyLibraries/USBlib/USB/Core/XMC4000/USBController_XMC4000.c **** 			break;
 179:/opt/XMClib/XMC_Peripheral_Library_v2.1.16/ThirdPartyLibraries/USBlib/USB/Core/XMC4000/USBController_XMC4000.c **** 		}
 180:/opt/XMClib/XMC_Peripheral_Library_v2.1.16/ThirdPartyLibraries/USBlib/USB/Core/XMC4000/USBController_XMC4000.c **** 		/* go ahead only with vailid config. (must be set in event) */
 181:/opt/XMClib/XMC_Peripheral_Library_v2.1.16/ThirdPartyLibraries/USBlib/USB/Core/XMC4000/USBController_XMC4000.c **** 		if (device.IsConfigured == 1)
 182:/opt/XMClib/XMC_Peripheral_Library_v2.1.16/ThirdPartyLibraries/USBlib/USB/Core/XMC4000/USBController_XMC4000.c **** 			USB_DeviceState = DEVICE_STATE_Configured;
 183:/opt/XMClib/XMC_Peripheral_Library_v2.1.16/ThirdPartyLibraries/USBlib/USB/Core/XMC4000/USBController_XMC4000.c **** 		else
 184:/opt/XMClib/XMC_Peripheral_Library_v2.1.16/ThirdPartyLibraries/USBlib/USB/Core/XMC4000/USBController_XMC4000.c **** 			USBD_HandleEP0_Stall();
 185:/opt/XMClib/XMC_Peripheral_Library_v2.1.16/ThirdPartyLibraries/USBlib/USB/Core/XMC4000/USBController_XMC4000.c **** 		break;
 186:/opt/XMClib/XMC_Peripheral_Library_v2.1.16/ThirdPartyLibraries/USBlib/USB/Core/XMC4000/USBController_XMC4000.c **** 
 187:/opt/XMClib/XMC_Peripheral_Library_v2.1.16/ThirdPartyLibraries/USBlib/USB/Core/XMC4000/USBController_XMC4000.c **** 	case REQ_SetDescriptor:
 188:/opt/XMClib/XMC_Peripheral_Library_v2.1.16/ThirdPartyLibraries/USBlib/USB/Core/XMC4000/USBController_XMC4000.c **** 		/* Set Descriptor not supported, so stall */
 189:/opt/XMClib/XMC_Peripheral_Library_v2.1.16/ThirdPartyLibraries/USBlib/USB/Core/XMC4000/USBController_XMC4000.c **** 		USBD_HandleEP0_Stall();
 190:/opt/XMClib/XMC_Peripheral_Library_v2.1.16/ThirdPartyLibraries/USBlib/USB/Core/XMC4000/USBController_XMC4000.c **** 		break;
 191:/opt/XMClib/XMC_Peripheral_Library_v2.1.16/ThirdPartyLibraries/USBlib/USB/Core/XMC4000/USBController_XMC4000.c **** 
 192:/opt/XMClib/XMC_Peripheral_Library_v2.1.16/ThirdPartyLibraries/USBlib/USB/Core/XMC4000/USBController_XMC4000.c **** 	case REQ_SetInterface:
 193:/opt/XMClib/XMC_Peripheral_Library_v2.1.16/ThirdPartyLibraries/USBlib/USB/Core/XMC4000/USBController_XMC4000.c **** 		if (USB_DeviceState == DEVICE_STATE_Configured) {
 194:/opt/XMClib/XMC_Peripheral_Library_v2.1.16/ThirdPartyLibraries/USBlib/USB/Core/XMC4000/USBController_XMC4000.c **** 			/* TODO: Check if interface and altsetting exists and configuration is allowed, else stall */
 195:/opt/XMClib/XMC_Peripheral_Library_v2.1.16/ThirdPartyLibraries/USBlib/USB/Core/XMC4000/USBController_XMC4000.c **** 			device.InterfaceSettings[USB_ControlRequest.wIndex] = USB_ControlRequest.wValue;
 196:/opt/XMClib/XMC_Peripheral_Library_v2.1.16/ThirdPartyLibraries/USBlib/USB/Core/XMC4000/USBController_XMC4000.c **** 			break;
 197:/opt/XMClib/XMC_Peripheral_Library_v2.1.16/ThirdPartyLibraries/USBlib/USB/Core/XMC4000/USBController_XMC4000.c **** 		}
 198:/opt/XMClib/XMC_Peripheral_Library_v2.1.16/ThirdPartyLibraries/USBlib/USB/Core/XMC4000/USBController_XMC4000.c **** 		if (USB_DeviceState == DEVICE_STATE_Addressed) {
 199:/opt/XMClib/XMC_Peripheral_Library_v2.1.16/ThirdPartyLibraries/USBlib/USB/Core/XMC4000/USBController_XMC4000.c **** 			USBD_HandleEP0_Stall();
 200:/opt/XMClib/XMC_Peripheral_Library_v2.1.16/ThirdPartyLibraries/USBlib/USB/Core/XMC4000/USBController_XMC4000.c **** 			break;
 201:/opt/XMClib/XMC_Peripheral_Library_v2.1.16/ThirdPartyLibraries/USBlib/USB/Core/XMC4000/USBController_XMC4000.c **** 		}
 202:/opt/XMClib/XMC_Peripheral_Library_v2.1.16/ThirdPartyLibraries/USBlib/USB/Core/XMC4000/USBController_XMC4000.c **** 		break;
 203:/opt/XMClib/XMC_Peripheral_Library_v2.1.16/ThirdPartyLibraries/USBlib/USB/Core/XMC4000/USBController_XMC4000.c **** 
 204:/opt/XMClib/XMC_Peripheral_Library_v2.1.16/ThirdPartyLibraries/USBlib/USB/Core/XMC4000/USBController_XMC4000.c **** 	case REQ_SetFeature:
 205:/opt/XMClib/XMC_Peripheral_Library_v2.1.16/ThirdPartyLibraries/USBlib/USB/Core/XMC4000/USBController_XMC4000.c **** 		/* we do not support test mode */
 206:/opt/XMClib/XMC_Peripheral_Library_v2.1.16/ThirdPartyLibraries/USBlib/USB/Core/XMC4000/USBController_XMC4000.c **** 		if (Value == FEATURE_SEL_TestMode) {
 207:/opt/XMClib/XMC_Peripheral_Library_v2.1.16/ThirdPartyLibraries/USBlib/USB/Core/XMC4000/USBController_XMC4000.c **** 			USBD_HandleEP0_Stall();
 208:/opt/XMClib/XMC_Peripheral_Library_v2.1.16/ThirdPartyLibraries/USBlib/USB/Core/XMC4000/USBController_XMC4000.c **** 			break;
 209:/opt/XMClib/XMC_Peripheral_Library_v2.1.16/ThirdPartyLibraries/USBlib/USB/Core/XMC4000/USBController_XMC4000.c **** 		}
 210:/opt/XMClib/XMC_Peripheral_Library_v2.1.16/ThirdPartyLibraries/USBlib/USB/Core/XMC4000/USBController_XMC4000.c **** 		/* configured state */
 211:/opt/XMClib/XMC_Peripheral_Library_v2.1.16/ThirdPartyLibraries/USBlib/USB/Core/XMC4000/USBController_XMC4000.c **** 		if (USB_DeviceState == DEVICE_STATE_Configured) {
 212:/opt/XMClib/XMC_Peripheral_Library_v2.1.16/ThirdPartyLibraries/USBlib/USB/Core/XMC4000/USBController_XMC4000.c **** 			switch (Value) {
 213:/opt/XMClib/XMC_Peripheral_Library_v2.1.16/ThirdPartyLibraries/USBlib/USB/Core/XMC4000/USBController_XMC4000.c **** 			case FEATURE_SEL_DeviceRemoteWakeup:
 214:/opt/XMClib/XMC_Peripheral_Library_v2.1.16/ThirdPartyLibraries/USBlib/USB/Core/XMC4000/USBController_XMC4000.c **** 				device.RemoteWakeUp = 1;
 215:/opt/XMClib/XMC_Peripheral_Library_v2.1.16/ThirdPartyLibraries/USBlib/USB/Core/XMC4000/USBController_XMC4000.c **** 				break;
 216:/opt/XMClib/XMC_Peripheral_Library_v2.1.16/ThirdPartyLibraries/USBlib/USB/Core/XMC4000/USBController_XMC4000.c **** 			case FEATURE_SEL_EndpointHalt:
 217:/opt/XMClib/XMC_Peripheral_Library_v2.1.16/ThirdPartyLibraries/USBlib/USB/Core/XMC4000/USBController_XMC4000.c **** 				Index = USB_ControlRequest.wIndex & 0xFF & (uint8_t)XMC_USBD_ENDPOINT_NUMBER_MASK;
 218:/opt/XMClib/XMC_Peripheral_Library_v2.1.16/ThirdPartyLibraries/USBlib/USB/Core/XMC4000/USBController_XMC4000.c **** 				if (device.Endpoints[Index].IsConfigured == 0)
 219:/opt/XMClib/XMC_Peripheral_Library_v2.1.16/ThirdPartyLibraries/USBlib/USB/Core/XMC4000/USBController_XMC4000.c **** 					USBD_HandleEP0_Stall();
 220:/opt/XMClib/XMC_Peripheral_Library_v2.1.16/ThirdPartyLibraries/USBlib/USB/Core/XMC4000/USBController_XMC4000.c **** 				else {
 221:/opt/XMClib/XMC_Peripheral_Library_v2.1.16/ThirdPartyLibraries/USBlib/USB/Core/XMC4000/USBController_XMC4000.c **** 					device.Endpoints[Index].IsHalted = 1;
 222:/opt/XMClib/XMC_Peripheral_Library_v2.1.16/ThirdPartyLibraries/USBlib/USB/Core/XMC4000/USBController_XMC4000.c **** 					device.Driver->EndpointStall(USB_ControlRequest.wIndex,1);
 223:/opt/XMClib/XMC_Peripheral_Library_v2.1.16/ThirdPartyLibraries/USBlib/USB/Core/XMC4000/USBController_XMC4000.c **** 				}
 224:/opt/XMClib/XMC_Peripheral_Library_v2.1.16/ThirdPartyLibraries/USBlib/USB/Core/XMC4000/USBController_XMC4000.c **** 				break;
 225:/opt/XMClib/XMC_Peripheral_Library_v2.1.16/ThirdPartyLibraries/USBlib/USB/Core/XMC4000/USBController_XMC4000.c **** 			}
 226:/opt/XMClib/XMC_Peripheral_Library_v2.1.16/ThirdPartyLibraries/USBlib/USB/Core/XMC4000/USBController_XMC4000.c **** 			break;
 227:/opt/XMClib/XMC_Peripheral_Library_v2.1.16/ThirdPartyLibraries/USBlib/USB/Core/XMC4000/USBController_XMC4000.c **** 		}
 228:/opt/XMClib/XMC_Peripheral_Library_v2.1.16/ThirdPartyLibraries/USBlib/USB/Core/XMC4000/USBController_XMC4000.c **** 		/* when addressed, only ep0 can be halted */
 229:/opt/XMClib/XMC_Peripheral_Library_v2.1.16/ThirdPartyLibraries/USBlib/USB/Core/XMC4000/USBController_XMC4000.c **** 		if (USB_DeviceState == DEVICE_STATE_Addressed) {
 230:/opt/XMClib/XMC_Peripheral_Library_v2.1.16/ThirdPartyLibraries/USBlib/USB/Core/XMC4000/USBController_XMC4000.c **** 			if (Value == FEATURE_SEL_EndpointHalt &&
 231:/opt/XMClib/XMC_Peripheral_Library_v2.1.16/ThirdPartyLibraries/USBlib/USB/Core/XMC4000/USBController_XMC4000.c **** 					(USB_ControlRequest.bmRequestType & 0x3) == REQREC_ENDPOINT &&
 232:/opt/XMClib/XMC_Peripheral_Library_v2.1.16/ThirdPartyLibraries/USBlib/USB/Core/XMC4000/USBController_XMC4000.c **** 					(USB_ControlRequest.wIndex & 0x00FF) == 0x0) {
 233:/opt/XMClib/XMC_Peripheral_Library_v2.1.16/ThirdPartyLibraries/USBlib/USB/Core/XMC4000/USBController_XMC4000.c **** 				device.Endpoints[0].IsHalted = 1;
 234:/opt/XMClib/XMC_Peripheral_Library_v2.1.16/ThirdPartyLibraries/USBlib/USB/Core/XMC4000/USBController_XMC4000.c **** 				USBD_HandleEP0_Stall();
 235:/opt/XMClib/XMC_Peripheral_Library_v2.1.16/ThirdPartyLibraries/USBlib/USB/Core/XMC4000/USBController_XMC4000.c **** 				break;
 236:/opt/XMClib/XMC_Peripheral_Library_v2.1.16/ThirdPartyLibraries/USBlib/USB/Core/XMC4000/USBController_XMC4000.c **** 			}
 237:/opt/XMClib/XMC_Peripheral_Library_v2.1.16/ThirdPartyLibraries/USBlib/USB/Core/XMC4000/USBController_XMC4000.c **** 		}
 238:/opt/XMClib/XMC_Peripheral_Library_v2.1.16/ThirdPartyLibraries/USBlib/USB/Core/XMC4000/USBController_XMC4000.c **** 		/* default behaviour is stall */
 239:/opt/XMClib/XMC_Peripheral_Library_v2.1.16/ThirdPartyLibraries/USBlib/USB/Core/XMC4000/USBController_XMC4000.c **** 		USBD_HandleEP0_Stall();
 240:/opt/XMClib/XMC_Peripheral_Library_v2.1.16/ThirdPartyLibraries/USBlib/USB/Core/XMC4000/USBController_XMC4000.c **** 		break;
 241:/opt/XMClib/XMC_Peripheral_Library_v2.1.16/ThirdPartyLibraries/USBlib/USB/Core/XMC4000/USBController_XMC4000.c **** 
 242:/opt/XMClib/XMC_Peripheral_Library_v2.1.16/ThirdPartyLibraries/USBlib/USB/Core/XMC4000/USBController_XMC4000.c **** 	case REQ_SynchFrame:
 243:/opt/XMClib/XMC_Peripheral_Library_v2.1.16/ThirdPartyLibraries/USBlib/USB/Core/XMC4000/USBController_XMC4000.c **** 		/* Not yet supported */
 244:/opt/XMClib/XMC_Peripheral_Library_v2.1.16/ThirdPartyLibraries/USBlib/USB/Core/XMC4000/USBController_XMC4000.c **** 		USBD_HandleEP0_Stall();
 245:/opt/XMClib/XMC_Peripheral_Library_v2.1.16/ThirdPartyLibraries/USBlib/USB/Core/XMC4000/USBController_XMC4000.c **** 		break;
 246:/opt/XMClib/XMC_Peripheral_Library_v2.1.16/ThirdPartyLibraries/USBlib/USB/Core/XMC4000/USBController_XMC4000.c **** 
 247:/opt/XMClib/XMC_Peripheral_Library_v2.1.16/ThirdPartyLibraries/USBlib/USB/Core/XMC4000/USBController_XMC4000.c **** 	default:
 248:/opt/XMClib/XMC_Peripheral_Library_v2.1.16/ThirdPartyLibraries/USBlib/USB/Core/XMC4000/USBController_XMC4000.c **** 		USBD_HandleEP0_Stall();
 249:/opt/XMClib/XMC_Peripheral_Library_v2.1.16/ThirdPartyLibraries/USBlib/USB/Core/XMC4000/USBController_XMC4000.c **** 	}
 250:/opt/XMClib/XMC_Peripheral_Library_v2.1.16/ThirdPartyLibraries/USBlib/USB/Core/XMC4000/USBController_XMC4000.c **** 	device.IsSetupRecieved = 0;
 233              		.loc 1 250 2 discriminator 1 view .LVU58
 234              		.loc 1 250 25 is_stmt 0 discriminator 1 view .LVU59
 235 00c0 684A     		ldr	r2, .L54+4
 236 00c2 92F83E31 		ldrb	r3, [r2, #318]	@ zero_extendqisi2
 237 00c6 6FF34103 		bfc	r3, #1, #1
 238 00ca 82F83E31 		strb	r3, [r2, #318]
 239              	.L5:
 251:/opt/XMClib/XMC_Peripheral_Library_v2.1.16/ThirdPartyLibraries/USBlib/USB/Core/XMC4000/USBController_XMC4000.c **** }
 240              		.loc 1 251 1 view .LVU60
 241 00ce 03B0     		add	sp, sp, #12
 242              	.LCFI3:
 243              		.cfi_remember_state
 244              		.cfi_def_cfa_offset 12
 245              		@ sp needed
 246 00d0 30BD     		pop	{r4, r5, pc}
 247              	.LVL11:
 248              	.L16:
 249              	.LCFI4:
 250              		.cfi_restore_state
 112:/opt/XMClib/XMC_Peripheral_Library_v2.1.16/ThirdPartyLibraries/USBlib/USB/Core/XMC4000/USBController_XMC4000.c **** 		if (length==0)
 251              		.loc 1 112 3 is_stmt 1 view .LVU61
 112:/opt/XMClib/XMC_Peripheral_Library_v2.1.16/ThirdPartyLibraries/USBlib/USB/Core/XMC4000/USBController_XMC4000.c **** 		if (length==0)
 252              		.loc 1 112 83 is_stmt 0 view .LVU62
 253 00d2 634B     		ldr	r3, .L54
 254 00d4 9988     		ldrh	r1, [r3, #4]	@ unaligned
 112:/opt/XMClib/XMC_Peripheral_Library_v2.1.16/ThirdPartyLibraries/USBlib/USB/Core/XMC4000/USBController_XMC4000.c **** 		if (length==0)
 255              		.loc 1 112 12 view .LVU63
 256 00d6 01AA     		add	r2, sp, #4
 257 00d8 C9B2     		uxtb	r1, r1
 258 00da 5888     		ldrh	r0, [r3, #2]	@ unaligned
 259 00dc FFF7FEFF 		bl	CALLBACK_USB_GetDescriptor
 260              	.LVL12:
 113:/opt/XMClib/XMC_Peripheral_Library_v2.1.16/ThirdPartyLibraries/USBlib/USB/Core/XMC4000/USBController_XMC4000.c **** 			USBD_HandleEP0_Stall();
 261              		.loc 1 113 3 is_stmt 1 view .LVU64
 113:/opt/XMClib/XMC_Peripheral_Library_v2.1.16/ThirdPartyLibraries/USBlib/USB/Core/XMC4000/USBController_XMC4000.c **** 			USBD_HandleEP0_Stall();
 262              		.loc 1 113 6 is_stmt 0 view .LVU65
 263 00e0 88B1     		cbz	r0, .L45
 116:/opt/XMClib/XMC_Peripheral_Library_v2.1.16/ThirdPartyLibraries/USBlib/USB/Core/XMC4000/USBController_XMC4000.c **** 					length : USB_ControlRequest.wLength;
 264              		.loc 1 116 4 is_stmt 1 view .LVU66
 116:/opt/XMClib/XMC_Peripheral_Library_v2.1.16/ThirdPartyLibraries/USBlib/USB/Core/XMC4000/USBController_XMC4000.c **** 					length : USB_ControlRequest.wLength;
 265              		.loc 1 116 40 is_stmt 0 view .LVU67
 266 00e2 5F4A     		ldr	r2, .L54
 267 00e4 D488     		ldrh	r4, [r2, #6]	@ unaligned
 268              	.LVL13:
 116:/opt/XMClib/XMC_Peripheral_Library_v2.1.16/ThirdPartyLibraries/USBlib/USB/Core/XMC4000/USBController_XMC4000.c **** 					length : USB_ControlRequest.wLength;
 269              		.loc 1 116 11 view .LVU68
 270 00e6 8442     		cmp	r4, r0
 271 00e8 28BF     		it	cs
 272 00ea 0446     		movcs	r4, r0
 273              	.LVL14:
 118:/opt/XMClib/XMC_Peripheral_Library_v2.1.16/ThirdPartyLibraries/USBlib/USB/Core/XMC4000/USBController_XMC4000.c **** 			device.Endpoints[0].InDataLeft = length - ret;
 274              		.loc 1 118 4 is_stmt 1 view .LVU69
 118:/opt/XMClib/XMC_Peripheral_Library_v2.1.16/ThirdPartyLibraries/USBlib/USB/Core/XMC4000/USBController_XMC4000.c **** 			device.Endpoints[0].InDataLeft = length - ret;
 275              		.loc 1 118 16 is_stmt 0 view .LVU70
 276 00ec 5D4D     		ldr	r5, .L54+4
 118:/opt/XMClib/XMC_Peripheral_Library_v2.1.16/ThirdPartyLibraries/USBlib/USB/Core/XMC4000/USBController_XMC4000.c **** 			device.Endpoints[0].InDataLeft = length - ret;
 277              		.loc 1 118 23 view .LVU71
 278 00ee 2B68     		ldr	r3, [r5]
 118:/opt/XMClib/XMC_Peripheral_Library_v2.1.16/ThirdPartyLibraries/USBlib/USB/Core/XMC4000/USBController_XMC4000.c **** 			device.Endpoints[0].InDataLeft = length - ret;
 279              		.loc 1 118 10 view .LVU72
 280 00f0 1B6B     		ldr	r3, [r3, #48]
 281 00f2 2246     		mov	r2, r4
 282 00f4 0199     		ldr	r1, [sp, #4]
 283 00f6 0020     		movs	r0, #0
 284 00f8 9847     		blx	r3
 285              	.LVL15:
 119:/opt/XMClib/XMC_Peripheral_Library_v2.1.16/ThirdPartyLibraries/USBlib/USB/Core/XMC4000/USBController_XMC4000.c **** 			device.Endpoints[0].InDataBuffer = (uint8_t *)((uint32_t)buffer + ret);
 286              		.loc 1 119 4 is_stmt 1 view .LVU73
 119:/opt/XMClib/XMC_Peripheral_Library_v2.1.16/ThirdPartyLibraries/USBlib/USB/Core/XMC4000/USBController_XMC4000.c **** 			device.Endpoints[0].InDataBuffer = (uint8_t *)((uint32_t)buffer + ret);
 287              		.loc 1 119 44 is_stmt 0 view .LVU74
 288 00fa 241A     		subs	r4, r4, r0
 289              	.LVL16:
 119:/opt/XMClib/XMC_Peripheral_Library_v2.1.16/ThirdPartyLibraries/USBlib/USB/Core/XMC4000/USBController_XMC4000.c **** 			device.Endpoints[0].InDataBuffer = (uint8_t *)((uint32_t)buffer + ret);
 290              		.loc 1 119 35 view .LVU75
 291 00fc AC62     		str	r4, [r5, #40]
 120:/opt/XMClib/XMC_Peripheral_Library_v2.1.16/ThirdPartyLibraries/USBlib/USB/Core/XMC4000/USBController_XMC4000.c **** 		}
 292              		.loc 1 120 4 is_stmt 1 view .LVU76
 120:/opt/XMClib/XMC_Peripheral_Library_v2.1.16/ThirdPartyLibraries/USBlib/USB/Core/XMC4000/USBController_XMC4000.c **** 		}
 293              		.loc 1 120 68 is_stmt 0 view .LVU77
 294 00fe 019B     		ldr	r3, [sp, #4]
 295 0100 1844     		add	r0, r0, r3
 296              	.LVL17:
 120:/opt/XMClib/XMC_Peripheral_Library_v2.1.16/ThirdPartyLibraries/USBlib/USB/Core/XMC4000/USBController_XMC4000.c **** 		}
 297              		.loc 1 120 37 view .LVU78
 298 0102 E862     		str	r0, [r5, #44]
 299 0104 DCE7     		b	.L24
 300              	.LVL18:
 301              	.L45:
 114:/opt/XMClib/XMC_Peripheral_Library_v2.1.16/ThirdPartyLibraries/USBlib/USB/Core/XMC4000/USBController_XMC4000.c **** 		else {
 302              		.loc 1 114 4 is_stmt 1 view .LVU79
 303 0106 FFF7FEFF 		bl	USBD_HandleEP0_Stall
 304              	.LVL19:
 114:/opt/XMClib/XMC_Peripheral_Library_v2.1.16/ThirdPartyLibraries/USBlib/USB/Core/XMC4000/USBController_XMC4000.c **** 		else {
 305              		.loc 1 114 4 is_stmt 0 view .LVU80
 306 010a D9E7     		b	.L24
 307              	.LVL20:
 308              	.L12:
 125:/opt/XMClib/XMC_Peripheral_Library_v2.1.16/ThirdPartyLibraries/USBlib/USB/Core/XMC4000/USBController_XMC4000.c **** 			device.Driver->EndpointWrite(0,&device.InterfaceSettings[USB_ControlRequest.wIndex],1);
 309              		.loc 1 125 3 is_stmt 1 view .LVU81
 125:/opt/XMClib/XMC_Peripheral_Library_v2.1.16/ThirdPartyLibraries/USBlib/USB/Core/XMC4000/USBController_XMC4000.c **** 			device.Driver->EndpointWrite(0,&device.InterfaceSettings[USB_ControlRequest.wIndex],1);
 310              		.loc 1 125 23 is_stmt 0 view .LVU82
 311 010c 564B     		ldr	r3, .L54+8
 312 010e 1B78     		ldrb	r3, [r3]	@ zero_extendqisi2
 313 0110 DBB2     		uxtb	r3, r3
 125:/opt/XMClib/XMC_Peripheral_Library_v2.1.16/ThirdPartyLibraries/USBlib/USB/Core/XMC4000/USBController_XMC4000.c **** 			device.Driver->EndpointWrite(0,&device.InterfaceSettings[USB_ControlRequest.wIndex],1);
 314              		.loc 1 125 6 view .LVU83
 315 0112 042B     		cmp	r3, #4
 316 0114 07D0     		beq	.L46
 129:/opt/XMClib/XMC_Peripheral_Library_v2.1.16/ThirdPartyLibraries/USBlib/USB/Core/XMC4000/USBController_XMC4000.c **** 			USBD_HandleEP0_Stall();
 317              		.loc 1 129 3 is_stmt 1 view .LVU84
 129:/opt/XMClib/XMC_Peripheral_Library_v2.1.16/ThirdPartyLibraries/USBlib/USB/Core/XMC4000/USBController_XMC4000.c **** 			USBD_HandleEP0_Stall();
 318              		.loc 1 129 23 is_stmt 0 view .LVU85
 319 0116 544B     		ldr	r3, .L54+8
 320 0118 1B78     		ldrb	r3, [r3]	@ zero_extendqisi2
 321 011a DBB2     		uxtb	r3, r3
 129:/opt/XMClib/XMC_Peripheral_Library_v2.1.16/ThirdPartyLibraries/USBlib/USB/Core/XMC4000/USBController_XMC4000.c **** 			USBD_HandleEP0_Stall();
 322              		.loc 1 129 6 view .LVU86
 323 011c 032B     		cmp	r3, #3
 324 011e CFD1     		bne	.L24
 130:/opt/XMClib/XMC_Peripheral_Library_v2.1.16/ThirdPartyLibraries/USBlib/USB/Core/XMC4000/USBController_XMC4000.c **** 			break;
 325              		.loc 1 130 4 is_stmt 1 view .LVU87
 326 0120 FFF7FEFF 		bl	USBD_HandleEP0_Stall
 327              	.LVL21:
 131:/opt/XMClib/XMC_Peripheral_Library_v2.1.16/ThirdPartyLibraries/USBlib/USB/Core/XMC4000/USBController_XMC4000.c **** 		}
 328              		.loc 1 131 4 view .LVU88
 329 0124 CCE7     		b	.L24
 330              	.L46:
 126:/opt/XMClib/XMC_Peripheral_Library_v2.1.16/ThirdPartyLibraries/USBlib/USB/Core/XMC4000/USBController_XMC4000.c **** 			break;
 331              		.loc 1 126 4 view .LVU89
 126:/opt/XMClib/XMC_Peripheral_Library_v2.1.16/ThirdPartyLibraries/USBlib/USB/Core/XMC4000/USBController_XMC4000.c **** 			break;
 332              		.loc 1 126 35 is_stmt 0 view .LVU90
 333 0126 4F49     		ldr	r1, .L54+4
 334 0128 4D4B     		ldr	r3, .L54
 335 012a 9B88     		ldrh	r3, [r3, #4]	@ unaligned
 336 012c 03F59C73 		add	r3, r3, #312
 126:/opt/XMClib/XMC_Peripheral_Library_v2.1.16/ThirdPartyLibraries/USBlib/USB/Core/XMC4000/USBController_XMC4000.c **** 			break;
 337              		.loc 1 126 17 view .LVU91
 338 0130 0A68     		ldr	r2, [r1]
 126:/opt/XMClib/XMC_Peripheral_Library_v2.1.16/ThirdPartyLibraries/USBlib/USB/Core/XMC4000/USBController_XMC4000.c **** 			break;
 339              		.loc 1 126 4 view .LVU92
 340 0132 146B     		ldr	r4, [r2, #48]
 341              	.LVL22:
 126:/opt/XMClib/XMC_Peripheral_Library_v2.1.16/ThirdPartyLibraries/USBlib/USB/Core/XMC4000/USBController_XMC4000.c **** 			break;
 342              		.loc 1 126 4 view .LVU93
 343 0134 0122     		movs	r2, #1
 344 0136 1944     		add	r1, r1, r3
 345 0138 0020     		movs	r0, #0
 346 013a A047     		blx	r4
 347              	.LVL23:
 127:/opt/XMClib/XMC_Peripheral_Library_v2.1.16/ThirdPartyLibraries/USBlib/USB/Core/XMC4000/USBController_XMC4000.c **** 		}
 348              		.loc 1 127 4 is_stmt 1 view .LVU94
 349 013c C0E7     		b	.L24
 350              	.LVL24:
 351              	.L20:
 136:/opt/XMClib/XMC_Peripheral_Library_v2.1.16/ThirdPartyLibraries/USBlib/USB/Core/XMC4000/USBController_XMC4000.c **** 			status = device.RemoteWakeUp << 1 | device.SelfPowered;
 352              		.loc 1 136 3 view .LVU95
 136:/opt/XMClib/XMC_Peripheral_Library_v2.1.16/ThirdPartyLibraries/USBlib/USB/Core/XMC4000/USBController_XMC4000.c **** 			status = device.RemoteWakeUp << 1 | device.SelfPowered;
 353              		.loc 1 136 26 is_stmt 0 view .LVU96
 354 013e 484B     		ldr	r3, .L54
 355 0140 1B78     		ldrb	r3, [r3]	@ zero_extendqisi2
 136:/opt/XMClib/XMC_Peripheral_Library_v2.1.16/ThirdPartyLibraries/USBlib/USB/Core/XMC4000/USBController_XMC4000.c **** 			status = device.RemoteWakeUp << 1 | device.SelfPowered;
 356              		.loc 1 136 6 view .LVU97
 357 0142 13F00303 		ands	r3, r3, #3
 358 0146 12D1     		bne	.L28
 137:/opt/XMClib/XMC_Peripheral_Library_v2.1.16/ThirdPartyLibraries/USBlib/USB/Core/XMC4000/USBController_XMC4000.c **** 			device.Driver->EndpointWrite(0,(uint8_t*)&status,2);
 359              		.loc 1 137 4 is_stmt 1 view .LVU98
 137:/opt/XMClib/XMC_Peripheral_Library_v2.1.16/ThirdPartyLibraries/USBlib/USB/Core/XMC4000/USBController_XMC4000.c **** 			device.Driver->EndpointWrite(0,(uint8_t*)&status,2);
 360              		.loc 1 137 19 is_stmt 0 view .LVU99
 361 0148 464A     		ldr	r2, .L54+4
 362 014a 92F83E31 		ldrb	r3, [r2, #318]	@ zero_extendqisi2
 363 014e C3F38001 		ubfx	r1, r3, #2, #1
 137:/opt/XMClib/XMC_Peripheral_Library_v2.1.16/ThirdPartyLibraries/USBlib/USB/Core/XMC4000/USBController_XMC4000.c **** 			device.Driver->EndpointWrite(0,(uint8_t*)&status,2);
 364              		.loc 1 137 46 view .LVU100
 365 0152 C3F3C003 		ubfx	r3, r3, #3, #1
 137:/opt/XMClib/XMC_Peripheral_Library_v2.1.16/ThirdPartyLibraries/USBlib/USB/Core/XMC4000/USBController_XMC4000.c **** 			device.Driver->EndpointWrite(0,(uint8_t*)&status,2);
 366              		.loc 1 137 38 view .LVU101
 367 0156 43EA4103 		orr	r3, r3, r1, lsl #1
 137:/opt/XMClib/XMC_Peripheral_Library_v2.1.16/ThirdPartyLibraries/USBlib/USB/Core/XMC4000/USBController_XMC4000.c **** 			device.Driver->EndpointWrite(0,(uint8_t*)&status,2);
 368              		.loc 1 137 11 view .LVU102
 369 015a ADF80230 		strh	r3, [sp, #2]	@ movhi
 138:/opt/XMClib/XMC_Peripheral_Library_v2.1.16/ThirdPartyLibraries/USBlib/USB/Core/XMC4000/USBController_XMC4000.c **** 			break;
 370              		.loc 1 138 4 is_stmt 1 view .LVU103
 138:/opt/XMClib/XMC_Peripheral_Library_v2.1.16/ThirdPartyLibraries/USBlib/USB/Core/XMC4000/USBController_XMC4000.c **** 			break;
 371              		.loc 1 138 17 is_stmt 0 view .LVU104
 372 015e 1368     		ldr	r3, [r2]
 138:/opt/XMClib/XMC_Peripheral_Library_v2.1.16/ThirdPartyLibraries/USBlib/USB/Core/XMC4000/USBController_XMC4000.c **** 			break;
 373              		.loc 1 138 4 view .LVU105
 374 0160 1B6B     		ldr	r3, [r3, #48]
 375 0162 0222     		movs	r2, #2
 376 0164 0DEB0201 		add	r1, sp, r2
 377 0168 0020     		movs	r0, #0
 378 016a 9847     		blx	r3
 379              	.LVL25:
 139:/opt/XMClib/XMC_Peripheral_Library_v2.1.16/ThirdPartyLibraries/USBlib/USB/Core/XMC4000/USBController_XMC4000.c **** 		}
 380              		.loc 1 139 4 is_stmt 1 view .LVU106
 381 016c A8E7     		b	.L24
 382              	.L28:
 141:/opt/XMClib/XMC_Peripheral_Library_v2.1.16/ThirdPartyLibraries/USBlib/USB/Core/XMC4000/USBController_XMC4000.c **** 			status = 0;
 383              		.loc 1 141 3 view .LVU107
 141:/opt/XMClib/XMC_Peripheral_Library_v2.1.16/ThirdPartyLibraries/USBlib/USB/Core/XMC4000/USBController_XMC4000.c **** 			status = 0;
 384              		.loc 1 141 6 is_stmt 0 view .LVU108
 385 016e 012B     		cmp	r3, #1
 386 0170 23D0     		beq	.L47
 150:/opt/XMClib/XMC_Peripheral_Library_v2.1.16/ThirdPartyLibraries/USBlib/USB/Core/XMC4000/USBController_XMC4000.c **** 			Index = USB_ControlRequest.wIndex & 0xFF & ENDPOINT_EPNUM_MASK;
 387              		.loc 1 150 3 is_stmt 1 view .LVU109
 150:/opt/XMClib/XMC_Peripheral_Library_v2.1.16/ThirdPartyLibraries/USBlib/USB/Core/XMC4000/USBController_XMC4000.c **** 			Index = USB_ControlRequest.wIndex & 0xFF & ENDPOINT_EPNUM_MASK;
 388              		.loc 1 150 6 is_stmt 0 view .LVU110
 389 0172 022B     		cmp	r3, #2
 390 0174 26D1     		bne	.L30
 151:/opt/XMClib/XMC_Peripheral_Library_v2.1.16/ThirdPartyLibraries/USBlib/USB/Core/XMC4000/USBController_XMC4000.c **** 			if ((USB_DeviceState == DEVICE_STATE_Configured || USB_ControlRequest.wIndex==0) &&
 391              		.loc 1 151 4 is_stmt 1 view .LVU111
 151:/opt/XMClib/XMC_Peripheral_Library_v2.1.16/ThirdPartyLibraries/USBlib/USB/Core/XMC4000/USBController_XMC4000.c **** 			if ((USB_DeviceState == DEVICE_STATE_Configured || USB_ControlRequest.wIndex==0) &&
 392              		.loc 1 151 30 is_stmt 0 view .LVU112
 393 0176 3A4B     		ldr	r3, .L54
 394 0178 9B88     		ldrh	r3, [r3, #4]	@ unaligned
 395              	.LVL26:
 152:/opt/XMClib/XMC_Peripheral_Library_v2.1.16/ThirdPartyLibraries/USBlib/USB/Core/XMC4000/USBController_XMC4000.c **** 					device.Endpoints[Index].IsConfigured==1) {
 396              		.loc 1 152 4 is_stmt 1 view .LVU113
 152:/opt/XMClib/XMC_Peripheral_Library_v2.1.16/ThirdPartyLibraries/USBlib/USB/Core/XMC4000/USBController_XMC4000.c **** 					device.Endpoints[Index].IsConfigured==1) {
 397              		.loc 1 152 25 is_stmt 0 view .LVU114
 398 017a 3B4A     		ldr	r2, .L54+8
 399 017c 1278     		ldrb	r2, [r2]	@ zero_extendqisi2
 400 017e D2B2     		uxtb	r2, r2
 152:/opt/XMClib/XMC_Peripheral_Library_v2.1.16/ThirdPartyLibraries/USBlib/USB/Core/XMC4000/USBController_XMC4000.c **** 					device.Endpoints[Index].IsConfigured==1) {
 401              		.loc 1 152 7 view .LVU115
 402 0180 042A     		cmp	r2, #4
 403 0182 00D0     		beq	.L31
 152:/opt/XMClib/XMC_Peripheral_Library_v2.1.16/ThirdPartyLibraries/USBlib/USB/Core/XMC4000/USBController_XMC4000.c **** 					device.Endpoints[Index].IsConfigured==1) {
 404              		.loc 1 152 52 discriminator 2 view .LVU116
 405 0184 F3B9     		cbnz	r3, .L30
 406              	.L31:
 153:/opt/XMClib/XMC_Peripheral_Library_v2.1.16/ThirdPartyLibraries/USBlib/USB/Core/XMC4000/USBController_XMC4000.c **** 				status = device.Endpoints[Index].IsHalted;
 407              		.loc 1 153 29 discriminator 3 view .LVU117
 408 0186 03F00F03 		and	r3, r3, #15
 409 018a 364A     		ldr	r2, .L54+4
 410 018c 2C21     		movs	r1, #44
 411 018e 01FB0322 		mla	r2, r1, r3, r2
 412 0192 127A     		ldrb	r2, [r2, #8]	@ zero_extendqisi2
 152:/opt/XMClib/XMC_Peripheral_Library_v2.1.16/ThirdPartyLibraries/USBlib/USB/Core/XMC4000/USBController_XMC4000.c **** 					device.Endpoints[Index].IsConfigured==1) {
 413              		.loc 1 152 85 discriminator 3 view .LVU118
 414 0194 12F0010F 		tst	r2, #1
 415 0198 14D0     		beq	.L30
 154:/opt/XMClib/XMC_Peripheral_Library_v2.1.16/ThirdPartyLibraries/USBlib/USB/Core/XMC4000/USBController_XMC4000.c **** 				device.Driver->EndpointWrite(0,(uint8_t*)&status,2);
 416              		.loc 1 154 5 is_stmt 1 view .LVU119
 154:/opt/XMClib/XMC_Peripheral_Library_v2.1.16/ThirdPartyLibraries/USBlib/USB/Core/XMC4000/USBController_XMC4000.c **** 				device.Driver->EndpointWrite(0,(uint8_t*)&status,2);
 417              		.loc 1 154 37 is_stmt 0 view .LVU120
 418 019a 324A     		ldr	r2, .L54+4
 419 019c 01FB0323 		mla	r3, r1, r3, r2
 420 01a0 1B7A     		ldrb	r3, [r3, #8]	@ zero_extendqisi2
 421 01a2 C3F38003 		ubfx	r3, r3, #2, #1
 422 01a6 ADF80230 		strh	r3, [sp, #2]	@ movhi
 155:/opt/XMClib/XMC_Peripheral_Library_v2.1.16/ThirdPartyLibraries/USBlib/USB/Core/XMC4000/USBController_XMC4000.c **** 				break;
 423              		.loc 1 155 5 is_stmt 1 view .LVU121
 155:/opt/XMClib/XMC_Peripheral_Library_v2.1.16/ThirdPartyLibraries/USBlib/USB/Core/XMC4000/USBController_XMC4000.c **** 				break;
 424              		.loc 1 155 18 is_stmt 0 view .LVU122
 425 01aa 1368     		ldr	r3, [r2]
 155:/opt/XMClib/XMC_Peripheral_Library_v2.1.16/ThirdPartyLibraries/USBlib/USB/Core/XMC4000/USBController_XMC4000.c **** 				break;
 426              		.loc 1 155 5 view .LVU123
 427 01ac 1B6B     		ldr	r3, [r3, #48]
 428 01ae 0222     		movs	r2, #2
 429 01b0 0DEB0201 		add	r1, sp, r2
 430 01b4 0020     		movs	r0, #0
 431 01b6 9847     		blx	r3
 432              	.LVL27:
 156:/opt/XMClib/XMC_Peripheral_Library_v2.1.16/ThirdPartyLibraries/USBlib/USB/Core/XMC4000/USBController_XMC4000.c **** 			}
 433              		.loc 1 156 5 is_stmt 1 view .LVU124
 434 01b8 82E7     		b	.L24
 435              	.L47:
 141:/opt/XMClib/XMC_Peripheral_Library_v2.1.16/ThirdPartyLibraries/USBlib/USB/Core/XMC4000/USBController_XMC4000.c **** 			status = 0;
 436              		.loc 1 141 87 is_stmt 0 discriminator 1 view .LVU125
 437 01ba 2B4B     		ldr	r3, .L54+8
 438 01bc 1B78     		ldrb	r3, [r3]	@ zero_extendqisi2
 439 01be DBB2     		uxtb	r3, r3
 141:/opt/XMClib/XMC_Peripheral_Library_v2.1.16/ThirdPartyLibraries/USBlib/USB/Core/XMC4000/USBController_XMC4000.c **** 			status = 0;
 440              		.loc 1 141 68 discriminator 1 view .LVU126
 441 01c0 042B     		cmp	r3, #4
 442 01c2 02D0     		beq	.L48
 443              	.L30:
 160:/opt/XMClib/XMC_Peripheral_Library_v2.1.16/ThirdPartyLibraries/USBlib/USB/Core/XMC4000/USBController_XMC4000.c **** 		break;
 444              		.loc 1 160 3 is_stmt 1 view .LVU127
 445 01c4 FFF7FEFF 		bl	USBD_HandleEP0_Stall
 446              	.LVL28:
 161:/opt/XMClib/XMC_Peripheral_Library_v2.1.16/ThirdPartyLibraries/USBlib/USB/Core/XMC4000/USBController_XMC4000.c **** 
 447              		.loc 1 161 3 view .LVU128
 448 01c8 7AE7     		b	.L24
 449              	.L48:
 142:/opt/XMClib/XMC_Peripheral_Library_v2.1.16/ThirdPartyLibraries/USBlib/USB/Core/XMC4000/USBController_XMC4000.c **** 			device.Driver->EndpointWrite(0,(uint8_t*)&status,2);
 450              		.loc 1 142 4 view .LVU129
 142:/opt/XMClib/XMC_Peripheral_Library_v2.1.16/ThirdPartyLibraries/USBlib/USB/Core/XMC4000/USBController_XMC4000.c **** 			device.Driver->EndpointWrite(0,(uint8_t*)&status,2);
 451              		.loc 1 142 11 is_stmt 0 view .LVU130
 452 01ca 0020     		movs	r0, #0
 453 01cc ADF80200 		strh	r0, [sp, #2]	@ movhi
 143:/opt/XMClib/XMC_Peripheral_Library_v2.1.16/ThirdPartyLibraries/USBlib/USB/Core/XMC4000/USBController_XMC4000.c **** 			break;
 454              		.loc 1 143 4 is_stmt 1 view .LVU131
 143:/opt/XMClib/XMC_Peripheral_Library_v2.1.16/ThirdPartyLibraries/USBlib/USB/Core/XMC4000/USBController_XMC4000.c **** 			break;
 455              		.loc 1 143 10 is_stmt 0 view .LVU132
 456 01d0 244B     		ldr	r3, .L54+4
 143:/opt/XMClib/XMC_Peripheral_Library_v2.1.16/ThirdPartyLibraries/USBlib/USB/Core/XMC4000/USBController_XMC4000.c **** 			break;
 457              		.loc 1 143 17 view .LVU133
 458 01d2 1B68     		ldr	r3, [r3]
 143:/opt/XMClib/XMC_Peripheral_Library_v2.1.16/ThirdPartyLibraries/USBlib/USB/Core/XMC4000/USBController_XMC4000.c **** 			break;
 459              		.loc 1 143 4 view .LVU134
 460 01d4 1B6B     		ldr	r3, [r3, #48]
 461 01d6 0222     		movs	r2, #2
 462 01d8 0DEB0201 		add	r1, sp, r2
 463 01dc 9847     		blx	r3
 464              	.LVL29:
 144:/opt/XMClib/XMC_Peripheral_Library_v2.1.16/ThirdPartyLibraries/USBlib/USB/Core/XMC4000/USBController_XMC4000.c **** 		}
 465              		.loc 1 144 4 is_stmt 1 view .LVU135
 466 01de 6FE7     		b	.L24
 467              	.L17:
 164:/opt/XMClib/XMC_Peripheral_Library_v2.1.16/ThirdPartyLibraries/USBlib/USB/Core/XMC4000/USBController_XMC4000.c **** 			USB_DeviceState = DEVICE_STATE_Default;
 468              		.loc 1 164 3 view .LVU136
 164:/opt/XMClib/XMC_Peripheral_Library_v2.1.16/ThirdPartyLibraries/USBlib/USB/Core/XMC4000/USBController_XMC4000.c **** 			USB_DeviceState = DEVICE_STATE_Default;
 469              		.loc 1 164 6 is_stmt 0 view .LVU137
 470 01e0 4CB9     		cbnz	r4, .L32
 165:/opt/XMClib/XMC_Peripheral_Library_v2.1.16/ThirdPartyLibraries/USBlib/USB/Core/XMC4000/USBController_XMC4000.c **** 		else
 471              		.loc 1 165 4 is_stmt 1 view .LVU138
 165:/opt/XMClib/XMC_Peripheral_Library_v2.1.16/ThirdPartyLibraries/USBlib/USB/Core/XMC4000/USBController_XMC4000.c **** 		else
 472              		.loc 1 165 20 is_stmt 0 view .LVU139
 473 01e2 214B     		ldr	r3, .L54+8
 474 01e4 0222     		movs	r2, #2
 475 01e6 1A70     		strb	r2, [r3]
 476              	.L33:
 168:/opt/XMClib/XMC_Peripheral_Library_v2.1.16/ThirdPartyLibraries/USBlib/USB/Core/XMC4000/USBController_XMC4000.c **** 		break;
 477              		.loc 1 168 3 is_stmt 1 view .LVU140
 168:/opt/XMClib/XMC_Peripheral_Library_v2.1.16/ThirdPartyLibraries/USBlib/USB/Core/XMC4000/USBController_XMC4000.c **** 		break;
 478              		.loc 1 168 9 is_stmt 0 view .LVU141
 479 01e8 1E4B     		ldr	r3, .L54+4
 168:/opt/XMClib/XMC_Peripheral_Library_v2.1.16/ThirdPartyLibraries/USBlib/USB/Core/XMC4000/USBController_XMC4000.c **** 		break;
 480              		.loc 1 168 16 view .LVU142
 481 01ea 1B68     		ldr	r3, [r3]
 168:/opt/XMClib/XMC_Peripheral_Library_v2.1.16/ThirdPartyLibraries/USBlib/USB/Core/XMC4000/USBController_XMC4000.c **** 		break;
 482              		.loc 1 168 3 view .LVU143
 483 01ec 9B69     		ldr	r3, [r3, #24]
 484 01ee 0021     		movs	r1, #0
 485 01f0 2046     		mov	r0, r4
 486 01f2 9847     		blx	r3
 487              	.LVL30:
 169:/opt/XMClib/XMC_Peripheral_Library_v2.1.16/ThirdPartyLibraries/USBlib/USB/Core/XMC4000/USBController_XMC4000.c **** 
 488              		.loc 1 169 3 is_stmt 1 view .LVU144
 489 01f4 64E7     		b	.L24
 490              	.L32:
 167:/opt/XMClib/XMC_Peripheral_Library_v2.1.16/ThirdPartyLibraries/USBlib/USB/Core/XMC4000/USBController_XMC4000.c **** 		device.Driver->DeviceSetAddress(Value,XMC_USBD_SET_ADDRESS_STAGE_SETUP);
 491              		.loc 1 167 4 view .LVU145
 167:/opt/XMClib/XMC_Peripheral_Library_v2.1.16/ThirdPartyLibraries/USBlib/USB/Core/XMC4000/USBController_XMC4000.c **** 		device.Driver->DeviceSetAddress(Value,XMC_USBD_SET_ADDRESS_STAGE_SETUP);
 492              		.loc 1 167 20 is_stmt 0 view .LVU146
 493 01f6 1C4B     		ldr	r3, .L54+8
 494 01f8 0322     		movs	r2, #3
 495 01fa 1A70     		strb	r2, [r3]
 496 01fc F4E7     		b	.L33
 497              	.L13:
 173:/opt/XMClib/XMC_Peripheral_Library_v2.1.16/ThirdPartyLibraries/USBlib/USB/Core/XMC4000/USBController_XMC4000.c **** 		EVENT_USB_Device_ConfigurationChanged();
 498              		.loc 1 173 3 is_stmt 1 view .LVU147
 173:/opt/XMClib/XMC_Peripheral_Library_v2.1.16/ThirdPartyLibraries/USBlib/USB/Core/XMC4000/USBController_XMC4000.c **** 		EVENT_USB_Device_ConfigurationChanged();
 499              		.loc 1 173 24 is_stmt 0 view .LVU148
 500 01fe 194B     		ldr	r3, .L54+4
 501 0200 83F83941 		strb	r4, [r3, #313]
 174:/opt/XMClib/XMC_Peripheral_Library_v2.1.16/ThirdPartyLibraries/USBlib/USB/Core/XMC4000/USBController_XMC4000.c **** 		/* when config 0 is choosen, we are back in address state */
 502              		.loc 1 174 3 is_stmt 1 view .LVU149
 503 0204 FFF7FEFF 		bl	EVENT_USB_Device_ConfigurationChanged
 504              	.LVL31:
 176:/opt/XMClib/XMC_Peripheral_Library_v2.1.16/ThirdPartyLibraries/USBlib/USB/Core/XMC4000/USBController_XMC4000.c **** 			USB_DeviceState = DEVICE_STATE_Addressed;
 505              		.loc 1 176 3 view .LVU150
 176:/opt/XMClib/XMC_Peripheral_Library_v2.1.16/ThirdPartyLibraries/USBlib/USB/Core/XMC4000/USBController_XMC4000.c **** 			USB_DeviceState = DEVICE_STATE_Addressed;
 506              		.loc 1 176 6 is_stmt 0 view .LVU151
 507 0208 1CB9     		cbnz	r4, .L34
 177:/opt/XMClib/XMC_Peripheral_Library_v2.1.16/ThirdPartyLibraries/USBlib/USB/Core/XMC4000/USBController_XMC4000.c **** 			break;
 508              		.loc 1 177 4 is_stmt 1 view .LVU152
 177:/opt/XMClib/XMC_Peripheral_Library_v2.1.16/ThirdPartyLibraries/USBlib/USB/Core/XMC4000/USBController_XMC4000.c **** 			break;
 509              		.loc 1 177 20 is_stmt 0 view .LVU153
 510 020a 174B     		ldr	r3, .L54+8
 511 020c 0322     		movs	r2, #3
 512 020e 1A70     		strb	r2, [r3]
 178:/opt/XMClib/XMC_Peripheral_Library_v2.1.16/ThirdPartyLibraries/USBlib/USB/Core/XMC4000/USBController_XMC4000.c **** 		}
 513              		.loc 1 178 4 is_stmt 1 view .LVU154
 514 0210 56E7     		b	.L24
 515              	.L34:
 181:/opt/XMClib/XMC_Peripheral_Library_v2.1.16/ThirdPartyLibraries/USBlib/USB/Core/XMC4000/USBController_XMC4000.c **** 			USB_DeviceState = DEVICE_STATE_Configured;
 516              		.loc 1 181 3 view .LVU155
 181:/opt/XMClib/XMC_Peripheral_Library_v2.1.16/ThirdPartyLibraries/USBlib/USB/Core/XMC4000/USBController_XMC4000.c **** 			USB_DeviceState = DEVICE_STATE_Configured;
 517              		.loc 1 181 27 is_stmt 0 view .LVU156
 518 0212 144B     		ldr	r3, .L54+4
 519 0214 93F83E31 		ldrb	r3, [r3, #318]	@ zero_extendqisi2
 181:/opt/XMClib/XMC_Peripheral_Library_v2.1.16/ThirdPartyLibraries/USBlib/USB/Core/XMC4000/USBController_XMC4000.c **** 			USB_DeviceState = DEVICE_STATE_Configured;
 520              		.loc 1 181 6 view .LVU157
 521 0218 13F0010F 		tst	r3, #1
 522 021c 03D0     		beq	.L35
 182:/opt/XMClib/XMC_Peripheral_Library_v2.1.16/ThirdPartyLibraries/USBlib/USB/Core/XMC4000/USBController_XMC4000.c **** 		else
 523              		.loc 1 182 4 is_stmt 1 view .LVU158
 182:/opt/XMClib/XMC_Peripheral_Library_v2.1.16/ThirdPartyLibraries/USBlib/USB/Core/XMC4000/USBController_XMC4000.c **** 		else
 524              		.loc 1 182 20 is_stmt 0 view .LVU159
 525 021e 124B     		ldr	r3, .L54+8
 526 0220 0422     		movs	r2, #4
 527 0222 1A70     		strb	r2, [r3]
 528 0224 4CE7     		b	.L24
 529              	.L35:
 184:/opt/XMClib/XMC_Peripheral_Library_v2.1.16/ThirdPartyLibraries/USBlib/USB/Core/XMC4000/USBController_XMC4000.c **** 		break;
 530              		.loc 1 184 4 is_stmt 1 view .LVU160
 531 0226 FFF7FEFF 		bl	USBD_HandleEP0_Stall
 532              	.LVL32:
 533 022a 49E7     		b	.L24
 534              	.L15:
 189:/opt/XMClib/XMC_Peripheral_Library_v2.1.16/ThirdPartyLibraries/USBlib/USB/Core/XMC4000/USBController_XMC4000.c **** 		break;
 535              		.loc 1 189 3 view .LVU161
 536 022c FFF7FEFF 		bl	USBD_HandleEP0_Stall
 537              	.LVL33:
 190:/opt/XMClib/XMC_Peripheral_Library_v2.1.16/ThirdPartyLibraries/USBlib/USB/Core/XMC4000/USBController_XMC4000.c **** 
 538              		.loc 1 190 3 view .LVU162
 539 0230 46E7     		b	.L24
 540              	.L11:
 193:/opt/XMClib/XMC_Peripheral_Library_v2.1.16/ThirdPartyLibraries/USBlib/USB/Core/XMC4000/USBController_XMC4000.c **** 			/* TODO: Check if interface and altsetting exists and configuration is allowed, else stall */
 541              		.loc 1 193 3 view .LVU163
 193:/opt/XMClib/XMC_Peripheral_Library_v2.1.16/ThirdPartyLibraries/USBlib/USB/Core/XMC4000/USBController_XMC4000.c **** 			/* TODO: Check if interface and altsetting exists and configuration is allowed, else stall */
 542              		.loc 1 193 23 is_stmt 0 view .LVU164
 543 0232 0D4B     		ldr	r3, .L54+8
 544 0234 1B78     		ldrb	r3, [r3]	@ zero_extendqisi2
 545 0236 DBB2     		uxtb	r3, r3
 193:/opt/XMClib/XMC_Peripheral_Library_v2.1.16/ThirdPartyLibraries/USBlib/USB/Core/XMC4000/USBController_XMC4000.c **** 			/* TODO: Check if interface and altsetting exists and configuration is allowed, else stall */
 546              		.loc 1 193 6 view .LVU165
 547 0238 042B     		cmp	r3, #4
 548 023a 08D0     		beq	.L49
 198:/opt/XMClib/XMC_Peripheral_Library_v2.1.16/ThirdPartyLibraries/USBlib/USB/Core/XMC4000/USBController_XMC4000.c **** 			USBD_HandleEP0_Stall();
 549              		.loc 1 198 3 is_stmt 1 view .LVU166
 198:/opt/XMClib/XMC_Peripheral_Library_v2.1.16/ThirdPartyLibraries/USBlib/USB/Core/XMC4000/USBController_XMC4000.c **** 			USBD_HandleEP0_Stall();
 550              		.loc 1 198 23 is_stmt 0 view .LVU167
 551 023c 0A4B     		ldr	r3, .L54+8
 552 023e 1B78     		ldrb	r3, [r3]	@ zero_extendqisi2
 553 0240 DBB2     		uxtb	r3, r3
 198:/opt/XMClib/XMC_Peripheral_Library_v2.1.16/ThirdPartyLibraries/USBlib/USB/Core/XMC4000/USBController_XMC4000.c **** 			USBD_HandleEP0_Stall();
 554              		.loc 1 198 6 view .LVU168
 555 0242 032B     		cmp	r3, #3
 556 0244 7FF43CAF 		bne	.L24
 199:/opt/XMClib/XMC_Peripheral_Library_v2.1.16/ThirdPartyLibraries/USBlib/USB/Core/XMC4000/USBController_XMC4000.c **** 			break;
 557              		.loc 1 199 4 is_stmt 1 view .LVU169
 558 0248 FFF7FEFF 		bl	USBD_HandleEP0_Stall
 559              	.LVL34:
 200:/opt/XMClib/XMC_Peripheral_Library_v2.1.16/ThirdPartyLibraries/USBlib/USB/Core/XMC4000/USBController_XMC4000.c **** 		}
 560              		.loc 1 200 4 view .LVU170
 561 024c 38E7     		b	.L24
 562              	.L49:
 195:/opt/XMClib/XMC_Peripheral_Library_v2.1.16/ThirdPartyLibraries/USBlib/USB/Core/XMC4000/USBController_XMC4000.c **** 			break;
 563              		.loc 1 195 4 view .LVU171
 195:/opt/XMClib/XMC_Peripheral_Library_v2.1.16/ThirdPartyLibraries/USBlib/USB/Core/XMC4000/USBController_XMC4000.c **** 			break;
 564              		.loc 1 195 47 is_stmt 0 view .LVU172
 565 024e 044A     		ldr	r2, .L54
 566 0250 9188     		ldrh	r1, [r2, #4]	@ unaligned
 195:/opt/XMClib/XMC_Peripheral_Library_v2.1.16/ThirdPartyLibraries/USBlib/USB/Core/XMC4000/USBController_XMC4000.c **** 			break;
 567              		.loc 1 195 56 view .LVU173
 568 0252 044B     		ldr	r3, .L54+4
 569 0254 0B44     		add	r3, r3, r1
 195:/opt/XMClib/XMC_Peripheral_Library_v2.1.16/ThirdPartyLibraries/USBlib/USB/Core/XMC4000/USBController_XMC4000.c **** 			break;
 570              		.loc 1 195 76 view .LVU174
 571 0256 5288     		ldrh	r2, [r2, #2]	@ unaligned
 195:/opt/XMClib/XMC_Peripheral_Library_v2.1.16/ThirdPartyLibraries/USBlib/USB/Core/XMC4000/USBController_XMC4000.c **** 			break;
 572              		.loc 1 195 56 view .LVU175
 573 0258 83F83821 		strb	r2, [r3, #312]
 196:/opt/XMClib/XMC_Peripheral_Library_v2.1.16/ThirdPartyLibraries/USBlib/USB/Core/XMC4000/USBController_XMC4000.c **** 		}
 574              		.loc 1 196 4 is_stmt 1 view .LVU176
 575 025c 30E7     		b	.L24
 576              	.L55:
 577 025e 00BF     		.align	2
 578              	.L54:
 579 0260 00000000 		.word	USB_ControlRequest
 580 0264 00000000 		.word	.LANCHOR0
 581 0268 00000000 		.word	USB_DeviceState
 582              	.L18:
 206:/opt/XMClib/XMC_Peripheral_Library_v2.1.16/ThirdPartyLibraries/USBlib/USB/Core/XMC4000/USBController_XMC4000.c **** 			USBD_HandleEP0_Stall();
 583              		.loc 1 206 3 view .LVU177
 206:/opt/XMClib/XMC_Peripheral_Library_v2.1.16/ThirdPartyLibraries/USBlib/USB/Core/XMC4000/USBController_XMC4000.c **** 			USBD_HandleEP0_Stall();
 584              		.loc 1 206 6 is_stmt 0 view .LVU178
 585 026c 022C     		cmp	r4, #2
 586 026e 13D0     		beq	.L50
 211:/opt/XMClib/XMC_Peripheral_Library_v2.1.16/ThirdPartyLibraries/USBlib/USB/Core/XMC4000/USBController_XMC4000.c **** 			switch (Value) {
 587              		.loc 1 211 3 is_stmt 1 view .LVU179
 211:/opt/XMClib/XMC_Peripheral_Library_v2.1.16/ThirdPartyLibraries/USBlib/USB/Core/XMC4000/USBController_XMC4000.c **** 			switch (Value) {
 588              		.loc 1 211 23 is_stmt 0 view .LVU180
 589 0270 294B     		ldr	r3, .L56
 590 0272 1B78     		ldrb	r3, [r3]	@ zero_extendqisi2
 591 0274 DBB2     		uxtb	r3, r3
 211:/opt/XMClib/XMC_Peripheral_Library_v2.1.16/ThirdPartyLibraries/USBlib/USB/Core/XMC4000/USBController_XMC4000.c **** 			switch (Value) {
 592              		.loc 1 211 6 view .LVU181
 593 0276 042B     		cmp	r3, #4
 594 0278 11D0     		beq	.L51
 229:/opt/XMClib/XMC_Peripheral_Library_v2.1.16/ThirdPartyLibraries/USBlib/USB/Core/XMC4000/USBController_XMC4000.c **** 			if (Value == FEATURE_SEL_EndpointHalt &&
 595              		.loc 1 229 3 is_stmt 1 view .LVU182
 229:/opt/XMClib/XMC_Peripheral_Library_v2.1.16/ThirdPartyLibraries/USBlib/USB/Core/XMC4000/USBController_XMC4000.c **** 			if (Value == FEATURE_SEL_EndpointHalt &&
 596              		.loc 1 229 23 is_stmt 0 view .LVU183
 597 027a 274B     		ldr	r3, .L56
 598 027c 1B78     		ldrb	r3, [r3]	@ zero_extendqisi2
 599 027e DBB2     		uxtb	r3, r3
 229:/opt/XMClib/XMC_Peripheral_Library_v2.1.16/ThirdPartyLibraries/USBlib/USB/Core/XMC4000/USBController_XMC4000.c **** 			if (Value == FEATURE_SEL_EndpointHalt &&
 600              		.loc 1 229 6 view .LVU184
 601 0280 032B     		cmp	r3, #3
 602 0282 06D1     		bne	.L41
 230:/opt/XMClib/XMC_Peripheral_Library_v2.1.16/ThirdPartyLibraries/USBlib/USB/Core/XMC4000/USBController_XMC4000.c **** 					(USB_ControlRequest.bmRequestType & 0x3) == REQREC_ENDPOINT &&
 603              		.loc 1 230 4 is_stmt 1 view .LVU185
 230:/opt/XMClib/XMC_Peripheral_Library_v2.1.16/ThirdPartyLibraries/USBlib/USB/Core/XMC4000/USBController_XMC4000.c **** 					(USB_ControlRequest.bmRequestType & 0x3) == REQREC_ENDPOINT &&
 604              		.loc 1 230 7 is_stmt 0 view .LVU186
 605 0284 2CB9     		cbnz	r4, .L41
 231:/opt/XMClib/XMC_Peripheral_Library_v2.1.16/ThirdPartyLibraries/USBlib/USB/Core/XMC4000/USBController_XMC4000.c **** 					(USB_ControlRequest.wIndex & 0x00FF) == 0x0) {
 606              		.loc 1 231 25 discriminator 1 view .LVU187
 607 0286 254B     		ldr	r3, .L56+4
 230:/opt/XMClib/XMC_Peripheral_Library_v2.1.16/ThirdPartyLibraries/USBlib/USB/Core/XMC4000/USBController_XMC4000.c **** 					(USB_ControlRequest.bmRequestType & 0x3) == REQREC_ENDPOINT &&
 608              		.loc 1 230 42 discriminator 1 view .LVU188
 609 0288 1B78     		ldrb	r3, [r3]	@ zero_extendqisi2
 610 028a 03F00303 		and	r3, r3, #3
 611 028e 022B     		cmp	r3, #2
 612 0290 2ED0     		beq	.L52
 613              	.L41:
 239:/opt/XMClib/XMC_Peripheral_Library_v2.1.16/ThirdPartyLibraries/USBlib/USB/Core/XMC4000/USBController_XMC4000.c **** 		break;
 614              		.loc 1 239 3 is_stmt 1 view .LVU189
 615 0292 FFF7FEFF 		bl	USBD_HandleEP0_Stall
 616              	.LVL35:
 240:/opt/XMClib/XMC_Peripheral_Library_v2.1.16/ThirdPartyLibraries/USBlib/USB/Core/XMC4000/USBController_XMC4000.c **** 
 617              		.loc 1 240 3 view .LVU190
 618 0296 13E7     		b	.L24
 619              	.L50:
 207:/opt/XMClib/XMC_Peripheral_Library_v2.1.16/ThirdPartyLibraries/USBlib/USB/Core/XMC4000/USBController_XMC4000.c **** 			break;
 620              		.loc 1 207 4 view .LVU191
 621 0298 FFF7FEFF 		bl	USBD_HandleEP0_Stall
 622              	.LVL36:
 208:/opt/XMClib/XMC_Peripheral_Library_v2.1.16/ThirdPartyLibraries/USBlib/USB/Core/XMC4000/USBController_XMC4000.c **** 		}
 623              		.loc 1 208 4 view .LVU192
 624 029c 10E7     		b	.L24
 625              	.L51:
 212:/opt/XMClib/XMC_Peripheral_Library_v2.1.16/ThirdPartyLibraries/USBlib/USB/Core/XMC4000/USBController_XMC4000.c **** 			case FEATURE_SEL_DeviceRemoteWakeup:
 626              		.loc 1 212 4 view .LVU193
 627 029e 54B1     		cbz	r4, .L39
 628 02a0 012C     		cmp	r4, #1
 629 02a2 7FF40DAF 		bne	.L24
 214:/opt/XMClib/XMC_Peripheral_Library_v2.1.16/ThirdPartyLibraries/USBlib/USB/Core/XMC4000/USBController_XMC4000.c **** 				break;
 630              		.loc 1 214 5 view .LVU194
 214:/opt/XMClib/XMC_Peripheral_Library_v2.1.16/ThirdPartyLibraries/USBlib/USB/Core/XMC4000/USBController_XMC4000.c **** 				break;
 631              		.loc 1 214 25 is_stmt 0 view .LVU195
 632 02a6 1E4A     		ldr	r2, .L56+8
 633 02a8 92F83E31 		ldrb	r3, [r2, #318]	@ zero_extendqisi2
 634 02ac 43F00403 		orr	r3, r3, #4
 635 02b0 82F83E31 		strb	r3, [r2, #318]
 215:/opt/XMClib/XMC_Peripheral_Library_v2.1.16/ThirdPartyLibraries/USBlib/USB/Core/XMC4000/USBController_XMC4000.c **** 			case FEATURE_SEL_EndpointHalt:
 636              		.loc 1 215 5 is_stmt 1 view .LVU196
 637 02b4 04E7     		b	.L24
 638              	.L39:
 217:/opt/XMClib/XMC_Peripheral_Library_v2.1.16/ThirdPartyLibraries/USBlib/USB/Core/XMC4000/USBController_XMC4000.c **** 				if (device.Endpoints[Index].IsConfigured == 0)
 639              		.loc 1 217 5 view .LVU197
 217:/opt/XMClib/XMC_Peripheral_Library_v2.1.16/ThirdPartyLibraries/USBlib/USB/Core/XMC4000/USBController_XMC4000.c **** 				if (device.Endpoints[Index].IsConfigured == 0)
 640              		.loc 1 217 31 is_stmt 0 view .LVU198
 641 02b6 194B     		ldr	r3, .L56+4
 642 02b8 9888     		ldrh	r0, [r3, #4]	@ unaligned
 643              	.LVL37:
 218:/opt/XMClib/XMC_Peripheral_Library_v2.1.16/ThirdPartyLibraries/USBlib/USB/Core/XMC4000/USBController_XMC4000.c **** 					USBD_HandleEP0_Stall();
 644              		.loc 1 218 5 is_stmt 1 view .LVU199
 218:/opt/XMClib/XMC_Peripheral_Library_v2.1.16/ThirdPartyLibraries/USBlib/USB/Core/XMC4000/USBController_XMC4000.c **** 					USBD_HandleEP0_Stall();
 645              		.loc 1 218 32 is_stmt 0 view .LVU200
 646 02ba 00F00F03 		and	r3, r0, #15
 647 02be 184A     		ldr	r2, .L56+8
 648 02c0 2C21     		movs	r1, #44
 649 02c2 01FB0322 		mla	r2, r1, r3, r2
 650 02c6 127A     		ldrb	r2, [r2, #8]	@ zero_extendqisi2
 218:/opt/XMClib/XMC_Peripheral_Library_v2.1.16/ThirdPartyLibraries/USBlib/USB/Core/XMC4000/USBController_XMC4000.c **** 					USBD_HandleEP0_Stall();
 651              		.loc 1 218 8 view .LVU201
 652 02c8 12F0010F 		tst	r2, #1
 653 02cc 0DD0     		beq	.L53
 221:/opt/XMClib/XMC_Peripheral_Library_v2.1.16/ThirdPartyLibraries/USBlib/USB/Core/XMC4000/USBController_XMC4000.c **** 					device.Driver->EndpointStall(USB_ControlRequest.wIndex,1);
 654              		.loc 1 221 6 is_stmt 1 view .LVU202
 221:/opt/XMClib/XMC_Peripheral_Library_v2.1.16/ThirdPartyLibraries/USBlib/USB/Core/XMC4000/USBController_XMC4000.c **** 					device.Driver->EndpointStall(USB_ControlRequest.wIndex,1);
 655              		.loc 1 221 39 is_stmt 0 view .LVU203
 656 02ce 1449     		ldr	r1, .L56+8
 657 02d0 2C22     		movs	r2, #44
 658 02d2 02FB0313 		mla	r3, r2, r3, r1
 659 02d6 1A7A     		ldrb	r2, [r3, #8]	@ zero_extendqisi2
 660 02d8 42F00402 		orr	r2, r2, #4
 661 02dc 1A72     		strb	r2, [r3, #8]
 222:/opt/XMClib/XMC_Peripheral_Library_v2.1.16/ThirdPartyLibraries/USBlib/USB/Core/XMC4000/USBController_XMC4000.c **** 				}
 662              		.loc 1 222 6 is_stmt 1 view .LVU204
 222:/opt/XMClib/XMC_Peripheral_Library_v2.1.16/ThirdPartyLibraries/USBlib/USB/Core/XMC4000/USBController_XMC4000.c **** 				}
 663              		.loc 1 222 19 is_stmt 0 view .LVU205
 664 02de 0B68     		ldr	r3, [r1]
 222:/opt/XMClib/XMC_Peripheral_Library_v2.1.16/ThirdPartyLibraries/USBlib/USB/Core/XMC4000/USBController_XMC4000.c **** 				}
 665              		.loc 1 222 6 view .LVU206
 666 02e0 5B6A     		ldr	r3, [r3, #36]
 667 02e2 0121     		movs	r1, #1
 668 02e4 C0B2     		uxtb	r0, r0
 669 02e6 9847     		blx	r3
 670              	.LVL38:
 222:/opt/XMClib/XMC_Peripheral_Library_v2.1.16/ThirdPartyLibraries/USBlib/USB/Core/XMC4000/USBController_XMC4000.c **** 				}
 671              		.loc 1 222 6 view .LVU207
 672 02e8 EAE6     		b	.L24
 673              	.LVL39:
 674              	.L53:
 219:/opt/XMClib/XMC_Peripheral_Library_v2.1.16/ThirdPartyLibraries/USBlib/USB/Core/XMC4000/USBController_XMC4000.c **** 				else {
 675              		.loc 1 219 6 is_stmt 1 view .LVU208
 676 02ea FFF7FEFF 		bl	USBD_HandleEP0_Stall
 677              	.LVL40:
 219:/opt/XMClib/XMC_Peripheral_Library_v2.1.16/ThirdPartyLibraries/USBlib/USB/Core/XMC4000/USBController_XMC4000.c **** 				else {
 678              		.loc 1 219 6 is_stmt 0 view .LVU209
 679 02ee E7E6     		b	.L24
 680              	.L52:
 232:/opt/XMClib/XMC_Peripheral_Library_v2.1.16/ThirdPartyLibraries/USBlib/USB/Core/XMC4000/USBController_XMC4000.c **** 				device.Endpoints[0].IsHalted = 1;
 681              		.loc 1 232 25 view .LVU210
 682 02f0 0A4B     		ldr	r3, .L56+4
 683 02f2 9B88     		ldrh	r3, [r3, #4]	@ unaligned
 231:/opt/XMClib/XMC_Peripheral_Library_v2.1.16/ThirdPartyLibraries/USBlib/USB/Core/XMC4000/USBController_XMC4000.c **** 					(USB_ControlRequest.wIndex & 0x00FF) == 0x0) {
 684              		.loc 1 231 66 view .LVU211
 685 02f4 DBB2     		uxtb	r3, r3
 686 02f6 002B     		cmp	r3, #0
 687 02f8 CBD1     		bne	.L41
 233:/opt/XMClib/XMC_Peripheral_Library_v2.1.16/ThirdPartyLibraries/USBlib/USB/Core/XMC4000/USBController_XMC4000.c **** 				USBD_HandleEP0_Stall();
 688              		.loc 1 233 5 is_stmt 1 view .LVU212
 233:/opt/XMClib/XMC_Peripheral_Library_v2.1.16/ThirdPartyLibraries/USBlib/USB/Core/XMC4000/USBController_XMC4000.c **** 				USBD_HandleEP0_Stall();
 689              		.loc 1 233 34 is_stmt 0 view .LVU213
 690 02fa 094A     		ldr	r2, .L56+8
 691 02fc 137A     		ldrb	r3, [r2, #8]	@ zero_extendqisi2
 692 02fe 43F00403 		orr	r3, r3, #4
 693 0302 1372     		strb	r3, [r2, #8]
 234:/opt/XMClib/XMC_Peripheral_Library_v2.1.16/ThirdPartyLibraries/USBlib/USB/Core/XMC4000/USBController_XMC4000.c **** 				break;
 694              		.loc 1 234 5 is_stmt 1 view .LVU214
 695 0304 FFF7FEFF 		bl	USBD_HandleEP0_Stall
 696              	.LVL41:
 235:/opt/XMClib/XMC_Peripheral_Library_v2.1.16/ThirdPartyLibraries/USBlib/USB/Core/XMC4000/USBController_XMC4000.c **** 			}
 697              		.loc 1 235 5 view .LVU215
 698 0308 DAE6     		b	.L24
 699              	.L9:
 244:/opt/XMClib/XMC_Peripheral_Library_v2.1.16/ThirdPartyLibraries/USBlib/USB/Core/XMC4000/USBController_XMC4000.c **** 		break;
 700              		.loc 1 244 3 view .LVU216
 701 030a FFF7FEFF 		bl	USBD_HandleEP0_Stall
 702              	.LVL42:
 245:/opt/XMClib/XMC_Peripheral_Library_v2.1.16/ThirdPartyLibraries/USBlib/USB/Core/XMC4000/USBController_XMC4000.c **** 
 703              		.loc 1 245 3 view .LVU217
 704 030e D7E6     		b	.L24
 705              	.L8:
 248:/opt/XMClib/XMC_Peripheral_Library_v2.1.16/ThirdPartyLibraries/USBlib/USB/Core/XMC4000/USBController_XMC4000.c **** 	}
 706              		.loc 1 248 3 view .LVU218
 707 0310 FFF7FEFF 		bl	USBD_HandleEP0_Stall
 708              	.LVL43:
 709 0314 D4E6     		b	.L24
 710              	.L57:
 711 0316 00BF     		.align	2
 712              	.L56:
 713 0318 00000000 		.word	USB_DeviceState
 714 031c 00000000 		.word	USB_ControlRequest
 715 0320 00000000 		.word	.LANCHOR0
 716              		.cfi_endproc
 717              	.LFE189:
 719              		.section	.text.USBD_HandleEP0_IN,"ax",%progbits
 720              		.align	1
 721              		.global	USBD_HandleEP0_IN
 722              		.syntax unified
 723              		.thumb
 724              		.thumb_func
 726              	USBD_HandleEP0_IN:
 727              	.LFB190:
 252:/opt/XMClib/XMC_Peripheral_Library_v2.1.16/ThirdPartyLibraries/USBlib/USB/Core/XMC4000/USBController_XMC4000.c **** 
 253:/opt/XMClib/XMC_Peripheral_Library_v2.1.16/ThirdPartyLibraries/USBlib/USB/Core/XMC4000/USBController_XMC4000.c **** /**
 254:/opt/XMClib/XMC_Peripheral_Library_v2.1.16/ThirdPartyLibraries/USBlib/USB/Core/XMC4000/USBController_XMC4000.c ****  * \brief Handle complete IN transfer on EP0
 255:/opt/XMClib/XMC_Peripheral_Library_v2.1.16/ThirdPartyLibraries/USBlib/USB/Core/XMC4000/USBController_XMC4000.c ****  *
 256:/opt/XMClib/XMC_Peripheral_Library_v2.1.16/ThirdPartyLibraries/USBlib/USB/Core/XMC4000/USBController_XMC4000.c ****  * In \ref IN_DATA state it starts a receive and switches to \ref OUT_STATUS state.
 257:/opt/XMClib/XMC_Peripheral_Library_v2.1.16/ThirdPartyLibraries/USBlib/USB/Core/XMC4000/USBController_XMC4000.c ****  * In \ref IN_STATUS state its starts a new read of setup packets and switches to \ref IDLE.
 258:/opt/XMClib/XMC_Peripheral_Library_v2.1.16/ThirdPartyLibraries/USBlib/USB/Core/XMC4000/USBController_XMC4000.c ****  */
 259:/opt/XMClib/XMC_Peripheral_Library_v2.1.16/ThirdPartyLibraries/USBlib/USB/Core/XMC4000/USBController_XMC4000.c **** void USBD_HandleEP0_IN() {
 728              		.loc 1 259 26 view -0
 729              		.cfi_startproc
 730              		@ args = 0, pretend = 0, frame = 0
 731              		@ frame_needed = 0, uses_anonymous_args = 0
 732 0000 10B5     		push	{r4, lr}
 733              	.LCFI5:
 734              		.cfi_def_cfa_offset 8
 735              		.cfi_offset 4, -8
 736              		.cfi_offset 14, -4
 260:/opt/XMClib/XMC_Peripheral_Library_v2.1.16/ThirdPartyLibraries/USBlib/USB/Core/XMC4000/USBController_XMC4000.c **** 	if (device.EP0_State == IN_DATA) {
 737              		.loc 1 260 2 view .LVU220
 738              		.loc 1 260 12 is_stmt 0 view .LVU221
 739 0002 0D4B     		ldr	r3, .L63
 740 0004 93F83B31 		ldrb	r3, [r3, #315]	@ zero_extendqisi2
 741              		.loc 1 260 5 view .LVU222
 742 0008 022B     		cmp	r3, #2
 743 000a 0BD0     		beq	.L62
 261:/opt/XMClib/XMC_Peripheral_Library_v2.1.16/ThirdPartyLibraries/USBlib/USB/Core/XMC4000/USBController_XMC4000.c **** 		/* Read zero length out data packet */
 262:/opt/XMClib/XMC_Peripheral_Library_v2.1.16/ThirdPartyLibraries/USBlib/USB/Core/XMC4000/USBController_XMC4000.c **** 		device.Driver->EndpointReadStart(0,0);
 263:/opt/XMClib/XMC_Peripheral_Library_v2.1.16/ThirdPartyLibraries/USBlib/USB/Core/XMC4000/USBController_XMC4000.c **** 		device.EP0_State = OUT_STATUS;
 264:/opt/XMClib/XMC_Peripheral_Library_v2.1.16/ThirdPartyLibraries/USBlib/USB/Core/XMC4000/USBController_XMC4000.c **** 	}
 265:/opt/XMClib/XMC_Peripheral_Library_v2.1.16/ThirdPartyLibraries/USBlib/USB/Core/XMC4000/USBController_XMC4000.c **** 	if (device.EP0_State == IN_STATUS) {
 744              		.loc 1 265 2 is_stmt 1 view .LVU223
 745              		.loc 1 265 5 is_stmt 0 view .LVU224
 746 000c 032B     		cmp	r3, #3
 747 000e 12D1     		bne	.L58
 266:/opt/XMClib/XMC_Peripheral_Library_v2.1.16/ThirdPartyLibraries/USBlib/USB/Core/XMC4000/USBController_XMC4000.c **** 		/* Request new setup packet */
 267:/opt/XMClib/XMC_Peripheral_Library_v2.1.16/ThirdPartyLibraries/USBlib/USB/Core/XMC4000/USBController_XMC4000.c **** 		device.Driver->EndpointReadStart(device.Endpoints[0].Address,24);
 748              		.loc 1 267 3 is_stmt 1 view .LVU225
 749 0010 094C     		ldr	r4, .L63
 750              		.loc 1 267 16 is_stmt 0 view .LVU226
 751 0012 2368     		ldr	r3, [r4]
 752              		.loc 1 267 3 view .LVU227
 753 0014 9B6A     		ldr	r3, [r3, #40]
 754 0016 1821     		movs	r1, #24
 755 0018 2079     		ldrb	r0, [r4, #4]	@ zero_extendqisi2
 756 001a 9847     		blx	r3
 757              	.LVL44:
 268:/opt/XMClib/XMC_Peripheral_Library_v2.1.16/ThirdPartyLibraries/USBlib/USB/Core/XMC4000/USBController_XMC4000.c **** 		device.EP0_State = IDLE;
 758              		.loc 1 268 3 is_stmt 1 view .LVU228
 759              		.loc 1 268 20 is_stmt 0 view .LVU229
 760 001c 0123     		movs	r3, #1
 761 001e 84F83B31 		strb	r3, [r4, #315]
 269:/opt/XMClib/XMC_Peripheral_Library_v2.1.16/ThirdPartyLibraries/USBlib/USB/Core/XMC4000/USBController_XMC4000.c **** 	}
 270:/opt/XMClib/XMC_Peripheral_Library_v2.1.16/ThirdPartyLibraries/USBlib/USB/Core/XMC4000/USBController_XMC4000.c **** }
 762              		.loc 1 270 1 view .LVU230
 763 0022 08E0     		b	.L58
 764              	.L62:
 262:/opt/XMClib/XMC_Peripheral_Library_v2.1.16/ThirdPartyLibraries/USBlib/USB/Core/XMC4000/USBController_XMC4000.c **** 		device.EP0_State = OUT_STATUS;
 765              		.loc 1 262 3 is_stmt 1 view .LVU231
 262:/opt/XMClib/XMC_Peripheral_Library_v2.1.16/ThirdPartyLibraries/USBlib/USB/Core/XMC4000/USBController_XMC4000.c **** 		device.EP0_State = OUT_STATUS;
 766              		.loc 1 262 9 is_stmt 0 view .LVU232
 767 0024 044C     		ldr	r4, .L63
 262:/opt/XMClib/XMC_Peripheral_Library_v2.1.16/ThirdPartyLibraries/USBlib/USB/Core/XMC4000/USBController_XMC4000.c **** 		device.EP0_State = OUT_STATUS;
 768              		.loc 1 262 16 view .LVU233
 769 0026 2368     		ldr	r3, [r4]
 262:/opt/XMClib/XMC_Peripheral_Library_v2.1.16/ThirdPartyLibraries/USBlib/USB/Core/XMC4000/USBController_XMC4000.c **** 		device.EP0_State = OUT_STATUS;
 770              		.loc 1 262 3 view .LVU234
 771 0028 9B6A     		ldr	r3, [r3, #40]
 772 002a 0021     		movs	r1, #0
 773 002c 0846     		mov	r0, r1
 774 002e 9847     		blx	r3
 775              	.LVL45:
 263:/opt/XMClib/XMC_Peripheral_Library_v2.1.16/ThirdPartyLibraries/USBlib/USB/Core/XMC4000/USBController_XMC4000.c **** 	}
 776              		.loc 1 263 3 is_stmt 1 view .LVU235
 263:/opt/XMClib/XMC_Peripheral_Library_v2.1.16/ThirdPartyLibraries/USBlib/USB/Core/XMC4000/USBController_XMC4000.c **** 	}
 777              		.loc 1 263 20 is_stmt 0 view .LVU236
 778 0030 0523     		movs	r3, #5
 779 0032 84F83B31 		strb	r3, [r4, #315]
 265:/opt/XMClib/XMC_Peripheral_Library_v2.1.16/ThirdPartyLibraries/USBlib/USB/Core/XMC4000/USBController_XMC4000.c **** 		/* Request new setup packet */
 780              		.loc 1 265 2 is_stmt 1 view .LVU237
 781              	.L58:
 782              		.loc 1 270 1 is_stmt 0 view .LVU238
 783 0036 10BD     		pop	{r4, pc}
 784              	.L64:
 785              		.align	2
 786              	.L63:
 787 0038 00000000 		.word	.LANCHOR0
 788              		.cfi_endproc
 789              	.LFE190:
 791              		.section	.text.USBD_HandleEP0_OUT,"ax",%progbits
 792              		.align	1
 793              		.global	USBD_HandleEP0_OUT
 794              		.syntax unified
 795              		.thumb
 796              		.thumb_func
 798              	USBD_HandleEP0_OUT:
 799              	.LFB191:
 271:/opt/XMClib/XMC_Peripheral_Library_v2.1.16/ThirdPartyLibraries/USBlib/USB/Core/XMC4000/USBController_XMC4000.c **** 
 272:/opt/XMClib/XMC_Peripheral_Library_v2.1.16/ThirdPartyLibraries/USBlib/USB/Core/XMC4000/USBController_XMC4000.c **** 
 273:/opt/XMClib/XMC_Peripheral_Library_v2.1.16/ThirdPartyLibraries/USBlib/USB/Core/XMC4000/USBController_XMC4000.c **** /**
 274:/opt/XMClib/XMC_Peripheral_Library_v2.1.16/ThirdPartyLibraries/USBlib/USB/Core/XMC4000/USBController_XMC4000.c ****  * \brief Handle complete OUT transfer on EP0
 275:/opt/XMClib/XMC_Peripheral_Library_v2.1.16/ThirdPartyLibraries/USBlib/USB/Core/XMC4000/USBController_XMC4000.c ****  *
 276:/opt/XMClib/XMC_Peripheral_Library_v2.1.16/ThirdPartyLibraries/USBlib/USB/Core/XMC4000/USBController_XMC4000.c ****  * Handles the OUT packet based on the state of endpoint 0. Starts a new read for new SETUP packets
 277:/opt/XMClib/XMC_Peripheral_Library_v2.1.16/ThirdPartyLibraries/USBlib/USB/Core/XMC4000/USBController_XMC4000.c ****  * When endpoint 0 is in \ref OUT_DATA state, it handles the received data and starts a write trans
 278:/opt/XMClib/XMC_Peripheral_Library_v2.1.16/ThirdPartyLibraries/USBlib/USB/Core/XMC4000/USBController_XMC4000.c ****  */
 279:/opt/XMClib/XMC_Peripheral_Library_v2.1.16/ThirdPartyLibraries/USBlib/USB/Core/XMC4000/USBController_XMC4000.c **** void USBD_HandleEP0_OUT() {
 800              		.loc 1 279 27 is_stmt 1 view -0
 801              		.cfi_startproc
 802              		@ args = 0, pretend = 0, frame = 0
 803              		@ frame_needed = 0, uses_anonymous_args = 0
 804 0000 10B5     		push	{r4, lr}
 805              	.LCFI6:
 806              		.cfi_def_cfa_offset 8
 807              		.cfi_offset 4, -8
 808              		.cfi_offset 14, -4
 280:/opt/XMClib/XMC_Peripheral_Library_v2.1.16/ThirdPartyLibraries/USBlib/USB/Core/XMC4000/USBController_XMC4000.c **** 	if (device.EP0_State == OUT_DATA) {
 809              		.loc 1 280 2 view .LVU240
 810              		.loc 1 280 12 is_stmt 0 view .LVU241
 811 0002 0F4B     		ldr	r3, .L71
 812 0004 93F83B31 		ldrb	r3, [r3, #315]	@ zero_extendqisi2
 813              		.loc 1 280 5 view .LVU242
 814 0008 042B     		cmp	r3, #4
 815 000a 02D0     		beq	.L69
 281:/opt/XMClib/XMC_Peripheral_Library_v2.1.16/ThirdPartyLibraries/USBlib/USB/Core/XMC4000/USBController_XMC4000.c **** 		/* Now we have the data for handling the request */
 282:/opt/XMClib/XMC_Peripheral_Library_v2.1.16/ThirdPartyLibraries/USBlib/USB/Core/XMC4000/USBController_XMC4000.c **** 		USB_Device_ProcessControlRequest();
 283:/opt/XMClib/XMC_Peripheral_Library_v2.1.16/ThirdPartyLibraries/USBlib/USB/Core/XMC4000/USBController_XMC4000.c **** 		/* Zero length packet for status stage */
 284:/opt/XMClib/XMC_Peripheral_Library_v2.1.16/ThirdPartyLibraries/USBlib/USB/Core/XMC4000/USBController_XMC4000.c **** 		device.Driver->EndpointWrite(ENDPOINT_DIR_MASK & 0,0,0);
 285:/opt/XMClib/XMC_Peripheral_Library_v2.1.16/ThirdPartyLibraries/USBlib/USB/Core/XMC4000/USBController_XMC4000.c **** 		device.EP0_State = IN_STATUS;
 286:/opt/XMClib/XMC_Peripheral_Library_v2.1.16/ThirdPartyLibraries/USBlib/USB/Core/XMC4000/USBController_XMC4000.c **** 	}
 287:/opt/XMClib/XMC_Peripheral_Library_v2.1.16/ThirdPartyLibraries/USBlib/USB/Core/XMC4000/USBController_XMC4000.c **** 	if (device.EP0_State == OUT_STATUS) {
 816              		.loc 1 287 2 is_stmt 1 view .LVU243
 817              		.loc 1 287 5 is_stmt 0 view .LVU244
 818 000c 052B     		cmp	r3, #5
 819 000e 0DD0     		beq	.L70
 820              	.L65:
 288:/opt/XMClib/XMC_Peripheral_Library_v2.1.16/ThirdPartyLibraries/USBlib/USB/Core/XMC4000/USBController_XMC4000.c **** 		/* Request new setup packet */
 289:/opt/XMClib/XMC_Peripheral_Library_v2.1.16/ThirdPartyLibraries/USBlib/USB/Core/XMC4000/USBController_XMC4000.c **** 		device.Driver->EndpointReadStart(device.Endpoints[0].Address,24);
 290:/opt/XMClib/XMC_Peripheral_Library_v2.1.16/ThirdPartyLibraries/USBlib/USB/Core/XMC4000/USBController_XMC4000.c **** 		device.EP0_State = IDLE;
 291:/opt/XMClib/XMC_Peripheral_Library_v2.1.16/ThirdPartyLibraries/USBlib/USB/Core/XMC4000/USBController_XMC4000.c **** 	}
 292:/opt/XMClib/XMC_Peripheral_Library_v2.1.16/ThirdPartyLibraries/USBlib/USB/Core/XMC4000/USBController_XMC4000.c **** }
 821              		.loc 1 292 1 view .LVU245
 822 0010 10BD     		pop	{r4, pc}
 823              	.L69:
 282:/opt/XMClib/XMC_Peripheral_Library_v2.1.16/ThirdPartyLibraries/USBlib/USB/Core/XMC4000/USBController_XMC4000.c **** 		/* Zero length packet for status stage */
 824              		.loc 1 282 3 is_stmt 1 view .LVU246
 825 0012 FFF7FEFF 		bl	USB_Device_ProcessControlRequest
 826              	.LVL46:
 284:/opt/XMClib/XMC_Peripheral_Library_v2.1.16/ThirdPartyLibraries/USBlib/USB/Core/XMC4000/USBController_XMC4000.c **** 		device.EP0_State = IN_STATUS;
 827              		.loc 1 284 3 view .LVU247
 284:/opt/XMClib/XMC_Peripheral_Library_v2.1.16/ThirdPartyLibraries/USBlib/USB/Core/XMC4000/USBController_XMC4000.c **** 		device.EP0_State = IN_STATUS;
 828              		.loc 1 284 9 is_stmt 0 view .LVU248
 829 0016 0A4C     		ldr	r4, .L71
 284:/opt/XMClib/XMC_Peripheral_Library_v2.1.16/ThirdPartyLibraries/USBlib/USB/Core/XMC4000/USBController_XMC4000.c **** 		device.EP0_State = IN_STATUS;
 830              		.loc 1 284 16 view .LVU249
 831 0018 2368     		ldr	r3, [r4]
 284:/opt/XMClib/XMC_Peripheral_Library_v2.1.16/ThirdPartyLibraries/USBlib/USB/Core/XMC4000/USBController_XMC4000.c **** 		device.EP0_State = IN_STATUS;
 832              		.loc 1 284 3 view .LVU250
 833 001a 1B6B     		ldr	r3, [r3, #48]
 834 001c 0022     		movs	r2, #0
 835 001e 1146     		mov	r1, r2
 836 0020 1046     		mov	r0, r2
 837 0022 9847     		blx	r3
 838              	.LVL47:
 285:/opt/XMClib/XMC_Peripheral_Library_v2.1.16/ThirdPartyLibraries/USBlib/USB/Core/XMC4000/USBController_XMC4000.c **** 	}
 839              		.loc 1 285 3 is_stmt 1 view .LVU251
 285:/opt/XMClib/XMC_Peripheral_Library_v2.1.16/ThirdPartyLibraries/USBlib/USB/Core/XMC4000/USBController_XMC4000.c **** 	}
 840              		.loc 1 285 20 is_stmt 0 view .LVU252
 841 0024 0323     		movs	r3, #3
 842 0026 84F83B31 		strb	r3, [r4, #315]
 287:/opt/XMClib/XMC_Peripheral_Library_v2.1.16/ThirdPartyLibraries/USBlib/USB/Core/XMC4000/USBController_XMC4000.c **** 		/* Request new setup packet */
 843              		.loc 1 287 2 is_stmt 1 view .LVU253
 844 002a F1E7     		b	.L65
 845              	.L70:
 289:/opt/XMClib/XMC_Peripheral_Library_v2.1.16/ThirdPartyLibraries/USBlib/USB/Core/XMC4000/USBController_XMC4000.c **** 		device.EP0_State = IDLE;
 846              		.loc 1 289 3 view .LVU254
 847 002c 044C     		ldr	r4, .L71
 289:/opt/XMClib/XMC_Peripheral_Library_v2.1.16/ThirdPartyLibraries/USBlib/USB/Core/XMC4000/USBController_XMC4000.c **** 		device.EP0_State = IDLE;
 848              		.loc 1 289 16 is_stmt 0 view .LVU255
 849 002e 2368     		ldr	r3, [r4]
 289:/opt/XMClib/XMC_Peripheral_Library_v2.1.16/ThirdPartyLibraries/USBlib/USB/Core/XMC4000/USBController_XMC4000.c **** 		device.EP0_State = IDLE;
 850              		.loc 1 289 3 view .LVU256
 851 0030 9B6A     		ldr	r3, [r3, #40]
 852 0032 1821     		movs	r1, #24
 853 0034 2079     		ldrb	r0, [r4, #4]	@ zero_extendqisi2
 854 0036 9847     		blx	r3
 855              	.LVL48:
 290:/opt/XMClib/XMC_Peripheral_Library_v2.1.16/ThirdPartyLibraries/USBlib/USB/Core/XMC4000/USBController_XMC4000.c **** 	}
 856              		.loc 1 290 3 is_stmt 1 view .LVU257
 290:/opt/XMClib/XMC_Peripheral_Library_v2.1.16/ThirdPartyLibraries/USBlib/USB/Core/XMC4000/USBController_XMC4000.c **** 	}
 857              		.loc 1 290 20 is_stmt 0 view .LVU258
 858 0038 0123     		movs	r3, #1
 859 003a 84F83B31 		strb	r3, [r4, #315]
 860              		.loc 1 292 1 view .LVU259
 861 003e E7E7     		b	.L65
 862              	.L72:
 863              		.align	2
 864              	.L71:
 865 0040 00000000 		.word	.LANCHOR0
 866              		.cfi_endproc
 867              	.LFE191:
 869              		.section	.text.USBD_HandleEP0_SETUP,"ax",%progbits
 870              		.align	1
 871              		.global	USBD_HandleEP0_SETUP
 872              		.syntax unified
 873              		.thumb
 874              		.thumb_func
 876              	USBD_HandleEP0_SETUP:
 877              	.LFB192:
 293:/opt/XMClib/XMC_Peripheral_Library_v2.1.16/ThirdPartyLibraries/USBlib/USB/Core/XMC4000/USBController_XMC4000.c **** 
 294:/opt/XMClib/XMC_Peripheral_Library_v2.1.16/ThirdPartyLibraries/USBlib/USB/Core/XMC4000/USBController_XMC4000.c **** /**
 295:/opt/XMClib/XMC_Peripheral_Library_v2.1.16/ThirdPartyLibraries/USBlib/USB/Core/XMC4000/USBController_XMC4000.c ****  * \brief Handle SETUP packet on EP0
 296:/opt/XMClib/XMC_Peripheral_Library_v2.1.16/ThirdPartyLibraries/USBlib/USB/Core/XMC4000/USBController_XMC4000.c ****  *
 297:/opt/XMClib/XMC_Peripheral_Library_v2.1.16/ThirdPartyLibraries/USBlib/USB/Core/XMC4000/USBController_XMC4000.c ****  * Handles the setup package an switches to correct state. If data is send from host to device it s
 298:/opt/XMClib/XMC_Peripheral_Library_v2.1.16/ThirdPartyLibraries/USBlib/USB/Core/XMC4000/USBController_XMC4000.c ****  * When the hosts sends all data within the setup package and \ref wLength equals zero, starts proc
 299:/opt/XMClib/XMC_Peripheral_Library_v2.1.16/ThirdPartyLibraries/USBlib/USB/Core/XMC4000/USBController_XMC4000.c ****  * in status reponse including the switch to \ref IN_STATUS.
 300:/opt/XMClib/XMC_Peripheral_Library_v2.1.16/ThirdPartyLibraries/USBlib/USB/Core/XMC4000/USBController_XMC4000.c ****  * When the host expects data from the device, the function processes the control request and switc
 301:/opt/XMClib/XMC_Peripheral_Library_v2.1.16/ThirdPartyLibraries/USBlib/USB/Core/XMC4000/USBController_XMC4000.c ****  */
 302:/opt/XMClib/XMC_Peripheral_Library_v2.1.16/ThirdPartyLibraries/USBlib/USB/Core/XMC4000/USBController_XMC4000.c **** void USBD_HandleEP0_SETUP() {
 878              		.loc 1 302 29 is_stmt 1 view -0
 879              		.cfi_startproc
 880              		@ args = 0, pretend = 0, frame = 0
 881              		@ frame_needed = 0, uses_anonymous_args = 0
 882 0000 10B5     		push	{r4, lr}
 883              	.LCFI7:
 884              		.cfi_def_cfa_offset 8
 885              		.cfi_offset 4, -8
 886              		.cfi_offset 14, -4
 303:/opt/XMClib/XMC_Peripheral_Library_v2.1.16/ThirdPartyLibraries/USBlib/USB/Core/XMC4000/USBController_XMC4000.c **** 	/* read setup package from ep0 */
 304:/opt/XMClib/XMC_Peripheral_Library_v2.1.16/ThirdPartyLibraries/USBlib/USB/Core/XMC4000/USBController_XMC4000.c **** 	int32_t ret_val = device.Driver->EndpointRead(0,(void*)&USB_ControlRequest,8);
 887              		.loc 1 304 2 view .LVU261
 888              		.loc 1 304 26 is_stmt 0 view .LVU262
 889 0002 194C     		ldr	r4, .L80
 890              		.loc 1 304 33 view .LVU263
 891 0004 2368     		ldr	r3, [r4]
 892              		.loc 1 304 20 view .LVU264
 893 0006 DB6A     		ldr	r3, [r3, #44]
 894 0008 0822     		movs	r2, #8
 895 000a 1849     		ldr	r1, .L80+4
 896 000c 0020     		movs	r0, #0
 897 000e 9847     		blx	r3
 898              	.LVL49:
 305:/opt/XMClib/XMC_Peripheral_Library_v2.1.16/ThirdPartyLibraries/USBlib/USB/Core/XMC4000/USBController_XMC4000.c **** #if NO_COPY_DRIVER
 306:/opt/XMClib/XMC_Peripheral_Library_v2.1.16/ThirdPartyLibraries/USBlib/USB/Core/XMC4000/USBController_XMC4000.c **** 	MEMCPY(&USB_ControlRequest,device.Endpoints[0].OutBuffer,sizeof(USB_ControlRequest));
 307:/opt/XMClib/XMC_Peripheral_Library_v2.1.16/ThirdPartyLibraries/USBlib/USB/Core/XMC4000/USBController_XMC4000.c **** #endif
 308:/opt/XMClib/XMC_Peripheral_Library_v2.1.16/ThirdPartyLibraries/USBlib/USB/Core/XMC4000/USBController_XMC4000.c **** 	device.IsSetupRecieved = true;
 899              		.loc 1 308 2 is_stmt 1 view .LVU265
 900              		.loc 1 308 25 is_stmt 0 view .LVU266
 901 0010 94F83E31 		ldrb	r3, [r4, #318]	@ zero_extendqisi2
 902 0014 43F00203 		orr	r3, r3, #2
 903 0018 84F83E31 		strb	r3, [r4, #318]
 309:/opt/XMClib/XMC_Peripheral_Library_v2.1.16/ThirdPartyLibraries/USBlib/USB/Core/XMC4000/USBController_XMC4000.c **** 	if (ret_val != 8 )
 904              		.loc 1 309 2 is_stmt 1 view .LVU267
 905              		.loc 1 309 5 is_stmt 0 view .LVU268
 906 001c 0828     		cmp	r0, #8
 907 001e 0FD1     		bne	.L73
 310:/opt/XMClib/XMC_Peripheral_Library_v2.1.16/ThirdPartyLibraries/USBlib/USB/Core/XMC4000/USBController_XMC4000.c **** 		return;
 311:/opt/XMClib/XMC_Peripheral_Library_v2.1.16/ThirdPartyLibraries/USBlib/USB/Core/XMC4000/USBController_XMC4000.c **** 
 312:/opt/XMClib/XMC_Peripheral_Library_v2.1.16/ThirdPartyLibraries/USBlib/USB/Core/XMC4000/USBController_XMC4000.c **** 	/* preprocess */
 313:/opt/XMClib/XMC_Peripheral_Library_v2.1.16/ThirdPartyLibraries/USBlib/USB/Core/XMC4000/USBController_XMC4000.c **** 	/* if length is zero we have only a in_status phase */
 314:/opt/XMClib/XMC_Peripheral_Library_v2.1.16/ThirdPartyLibraries/USBlib/USB/Core/XMC4000/USBController_XMC4000.c **** 	if (USB_ControlRequest.wLength==0) {
 908              		.loc 1 314 2 is_stmt 1 view .LVU269
 909              		.loc 1 314 24 is_stmt 0 view .LVU270
 910 0020 124B     		ldr	r3, .L80+4
 911 0022 D988     		ldrh	r1, [r3, #6]	@ unaligned
 912              		.loc 1 314 5 view .LVU271
 913 0024 69B1     		cbz	r1, .L78
 315:/opt/XMClib/XMC_Peripheral_Library_v2.1.16/ThirdPartyLibraries/USBlib/USB/Core/XMC4000/USBController_XMC4000.c **** 		device.EP0_State = IN_STATUS;
 316:/opt/XMClib/XMC_Peripheral_Library_v2.1.16/ThirdPartyLibraries/USBlib/USB/Core/XMC4000/USBController_XMC4000.c **** 		USB_Device_ProcessControlRequest();
 317:/opt/XMClib/XMC_Peripheral_Library_v2.1.16/ThirdPartyLibraries/USBlib/USB/Core/XMC4000/USBController_XMC4000.c **** 		device.Driver->EndpointWrite(0,0,0);
 318:/opt/XMClib/XMC_Peripheral_Library_v2.1.16/ThirdPartyLibraries/USBlib/USB/Core/XMC4000/USBController_XMC4000.c **** 	} else {
 319:/opt/XMClib/XMC_Peripheral_Library_v2.1.16/ThirdPartyLibraries/USBlib/USB/Core/XMC4000/USBController_XMC4000.c **** 		if (USB_ControlRequest.bmRequestType & CONTROL_REQTYPE_DIRECTION) {
 914              		.loc 1 319 3 is_stmt 1 view .LVU272
 915              		.loc 1 319 25 is_stmt 0 view .LVU273
 916 0026 114B     		ldr	r3, .L80+4
 917              		.loc 1 319 6 view .LVU274
 918 0028 93F90030 		ldrsb	r3, [r3]
 919 002c 002B     		cmp	r3, #0
 920 002e 14DB     		blt	.L79
 320:/opt/XMClib/XMC_Peripheral_Library_v2.1.16/ThirdPartyLibraries/USBlib/USB/Core/XMC4000/USBController_XMC4000.c **** 			device.EP0_State = IN_DATA;
 321:/opt/XMClib/XMC_Peripheral_Library_v2.1.16/ThirdPartyLibraries/USBlib/USB/Core/XMC4000/USBController_XMC4000.c **** 			USB_Device_ProcessControlRequest();
 322:/opt/XMClib/XMC_Peripheral_Library_v2.1.16/ThirdPartyLibraries/USBlib/USB/Core/XMC4000/USBController_XMC4000.c **** 		}
 323:/opt/XMClib/XMC_Peripheral_Library_v2.1.16/ThirdPartyLibraries/USBlib/USB/Core/XMC4000/USBController_XMC4000.c **** 		else {
 324:/opt/XMClib/XMC_Peripheral_Library_v2.1.16/ThirdPartyLibraries/USBlib/USB/Core/XMC4000/USBController_XMC4000.c **** 			device.EP0_State = OUT_DATA;
 921              		.loc 1 324 4 is_stmt 1 view .LVU275
 922              		.loc 1 324 21 is_stmt 0 view .LVU276
 923 0030 0D4B     		ldr	r3, .L80
 924 0032 0422     		movs	r2, #4
 925 0034 83F83B21 		strb	r2, [r3, #315]
 325:/opt/XMClib/XMC_Peripheral_Library_v2.1.16/ThirdPartyLibraries/USBlib/USB/Core/XMC4000/USBController_XMC4000.c **** 			/* Do not process request here, first read data */
 326:/opt/XMClib/XMC_Peripheral_Library_v2.1.16/ThirdPartyLibraries/USBlib/USB/Core/XMC4000/USBController_XMC4000.c **** 			device.Driver->EndpointReadStart(0,USB_ControlRequest.wLength);
 926              		.loc 1 326 4 is_stmt 1 view .LVU277
 927              		.loc 1 326 17 is_stmt 0 view .LVU278
 928 0038 1B68     		ldr	r3, [r3]
 929              		.loc 1 326 4 view .LVU279
 930 003a 9B6A     		ldr	r3, [r3, #40]
 931 003c 0020     		movs	r0, #0
 932              	.LVL50:
 933              		.loc 1 326 4 view .LVU280
 934 003e 9847     		blx	r3
 935              	.LVL51:
 936              	.L73:
 327:/opt/XMClib/XMC_Peripheral_Library_v2.1.16/ThirdPartyLibraries/USBlib/USB/Core/XMC4000/USBController_XMC4000.c **** 		}
 328:/opt/XMClib/XMC_Peripheral_Library_v2.1.16/ThirdPartyLibraries/USBlib/USB/Core/XMC4000/USBController_XMC4000.c **** 	}
 329:/opt/XMClib/XMC_Peripheral_Library_v2.1.16/ThirdPartyLibraries/USBlib/USB/Core/XMC4000/USBController_XMC4000.c **** }
 937              		.loc 1 329 1 view .LVU281
 938 0040 10BD     		pop	{r4, pc}
 939              	.LVL52:
 940              	.L78:
 315:/opt/XMClib/XMC_Peripheral_Library_v2.1.16/ThirdPartyLibraries/USBlib/USB/Core/XMC4000/USBController_XMC4000.c **** 		USB_Device_ProcessControlRequest();
 941              		.loc 1 315 3 is_stmt 1 view .LVU282
 315:/opt/XMClib/XMC_Peripheral_Library_v2.1.16/ThirdPartyLibraries/USBlib/USB/Core/XMC4000/USBController_XMC4000.c **** 		USB_Device_ProcessControlRequest();
 942              		.loc 1 315 20 is_stmt 0 view .LVU283
 943 0042 0323     		movs	r3, #3
 944 0044 84F83B31 		strb	r3, [r4, #315]
 316:/opt/XMClib/XMC_Peripheral_Library_v2.1.16/ThirdPartyLibraries/USBlib/USB/Core/XMC4000/USBController_XMC4000.c **** 		device.Driver->EndpointWrite(0,0,0);
 945              		.loc 1 316 3 is_stmt 1 view .LVU284
 946 0048 FFF7FEFF 		bl	USB_Device_ProcessControlRequest
 947              	.LVL53:
 317:/opt/XMClib/XMC_Peripheral_Library_v2.1.16/ThirdPartyLibraries/USBlib/USB/Core/XMC4000/USBController_XMC4000.c **** 	} else {
 948              		.loc 1 317 3 view .LVU285
 317:/opt/XMClib/XMC_Peripheral_Library_v2.1.16/ThirdPartyLibraries/USBlib/USB/Core/XMC4000/USBController_XMC4000.c **** 	} else {
 949              		.loc 1 317 16 is_stmt 0 view .LVU286
 950 004c 2368     		ldr	r3, [r4]
 317:/opt/XMClib/XMC_Peripheral_Library_v2.1.16/ThirdPartyLibraries/USBlib/USB/Core/XMC4000/USBController_XMC4000.c **** 	} else {
 951              		.loc 1 317 3 view .LVU287
 952 004e 1B6B     		ldr	r3, [r3, #48]
 953 0050 0022     		movs	r2, #0
 954 0052 1146     		mov	r1, r2
 955 0054 1046     		mov	r0, r2
 956 0056 9847     		blx	r3
 957              	.LVL54:
 958 0058 F2E7     		b	.L73
 959              	.LVL55:
 960              	.L79:
 320:/opt/XMClib/XMC_Peripheral_Library_v2.1.16/ThirdPartyLibraries/USBlib/USB/Core/XMC4000/USBController_XMC4000.c **** 			USB_Device_ProcessControlRequest();
 961              		.loc 1 320 4 is_stmt 1 view .LVU288
 320:/opt/XMClib/XMC_Peripheral_Library_v2.1.16/ThirdPartyLibraries/USBlib/USB/Core/XMC4000/USBController_XMC4000.c **** 			USB_Device_ProcessControlRequest();
 962              		.loc 1 320 21 is_stmt 0 view .LVU289
 963 005a 034B     		ldr	r3, .L80
 964 005c 0222     		movs	r2, #2
 965 005e 83F83B21 		strb	r2, [r3, #315]
 321:/opt/XMClib/XMC_Peripheral_Library_v2.1.16/ThirdPartyLibraries/USBlib/USB/Core/XMC4000/USBController_XMC4000.c **** 		}
 966              		.loc 1 321 4 is_stmt 1 view .LVU290
 967 0062 FFF7FEFF 		bl	USB_Device_ProcessControlRequest
 968              	.LVL56:
 321:/opt/XMClib/XMC_Peripheral_Library_v2.1.16/ThirdPartyLibraries/USBlib/USB/Core/XMC4000/USBController_XMC4000.c **** 		}
 969              		.loc 1 321 4 is_stmt 0 view .LVU291
 970 0066 EBE7     		b	.L73
 971              	.L81:
 972              		.align	2
 973              	.L80:
 974 0068 00000000 		.word	.LANCHOR0
 975 006c 00000000 		.word	USB_ControlRequest
 976              		.cfi_endproc
 977              	.LFE192:
 979              		.section	.text.USBD_SignalDeviceEventHandler,"ax",%progbits
 980              		.align	1
 981              		.global	USBD_SignalDeviceEventHandler
 982              		.syntax unified
 983              		.thumb
 984              		.thumb_func
 986              	USBD_SignalDeviceEventHandler:
 987              	.LVL57:
 988              	.LFB193:
 330:/opt/XMClib/XMC_Peripheral_Library_v2.1.16/ThirdPartyLibraries/USBlib/USB/Core/XMC4000/USBController_XMC4000.c **** 
 331:/opt/XMClib/XMC_Peripheral_Library_v2.1.16/ThirdPartyLibraries/USBlib/USB/Core/XMC4000/USBController_XMC4000.c **** /**
 332:/opt/XMClib/XMC_Peripheral_Library_v2.1.16/ThirdPartyLibraries/USBlib/USB/Core/XMC4000/USBController_XMC4000.c ****  * @}
 333:/opt/XMClib/XMC_Peripheral_Library_v2.1.16/ThirdPartyLibraries/USBlib/USB/Core/XMC4000/USBController_XMC4000.c ****  */
 334:/opt/XMClib/XMC_Peripheral_Library_v2.1.16/ThirdPartyLibraries/USBlib/USB/Core/XMC4000/USBController_XMC4000.c **** 
 335:/opt/XMClib/XMC_Peripheral_Library_v2.1.16/ThirdPartyLibraries/USBlib/USB/Core/XMC4000/USBController_XMC4000.c **** /**
 336:/opt/XMClib/XMC_Peripheral_Library_v2.1.16/ThirdPartyLibraries/USBlib/USB/Core/XMC4000/USBController_XMC4000.c ****  * \brief Device event handler for XMC Driver
 337:/opt/XMClib/XMC_Peripheral_Library_v2.1.16/ThirdPartyLibraries/USBlib/USB/Core/XMC4000/USBController_XMC4000.c ****  *
 338:/opt/XMClib/XMC_Peripheral_Library_v2.1.16/ThirdPartyLibraries/USBlib/USB/Core/XMC4000/USBController_XMC4000.c ****  * The device can have several events, where it notifies the application about.
 339:/opt/XMClib/XMC_Peripheral_Library_v2.1.16/ThirdPartyLibraries/USBlib/USB/Core/XMC4000/USBController_XMC4000.c ****  *
 340:/opt/XMClib/XMC_Peripheral_Library_v2.1.16/ThirdPartyLibraries/USBlib/USB/Core/XMC4000/USBController_XMC4000.c ****  * \note Not all events are available on all chip series. (Power Events are only supported on XMC45
 341:/opt/XMClib/XMC_Peripheral_Library_v2.1.16/ThirdPartyLibraries/USBlib/USB/Core/XMC4000/USBController_XMC4000.c ****  * \see USB_USBD_EVENT
 342:/opt/XMClib/XMC_Peripheral_Library_v2.1.16/ThirdPartyLibraries/USBlib/USB/Core/XMC4000/USBController_XMC4000.c ****  */
 343:/opt/XMClib/XMC_Peripheral_Library_v2.1.16/ThirdPartyLibraries/USBlib/USB/Core/XMC4000/USBController_XMC4000.c **** void USBD_SignalDeviceEventHandler(XMC_USBD_EVENT_t event) {
 989              		.loc 1 343 60 is_stmt 1 view -0
 990              		.cfi_startproc
 991              		@ args = 0, pretend = 0, frame = 0
 992              		@ frame_needed = 0, uses_anonymous_args = 0
 993              		.loc 1 343 60 is_stmt 0 view .LVU293
 994 0000 2DE9F041 		push	{r4, r5, r6, r7, r8, lr}
 995              	.LCFI8:
 996              		.cfi_def_cfa_offset 24
 997              		.cfi_offset 4, -24
 998              		.cfi_offset 5, -20
 999              		.cfi_offset 6, -16
 1000              		.cfi_offset 7, -12
 1001              		.cfi_offset 8, -8
 1002              		.cfi_offset 14, -4
 344:/opt/XMClib/XMC_Peripheral_Library_v2.1.16/ThirdPartyLibraries/USBlib/USB/Core/XMC4000/USBController_XMC4000.c **** 	int i;
 1003              		.loc 1 344 2 is_stmt 1 view .LVU294
 345:/opt/XMClib/XMC_Peripheral_Library_v2.1.16/ThirdPartyLibraries/USBlib/USB/Core/XMC4000/USBController_XMC4000.c **** 	switch (event) {
 1004              		.loc 1 345 2 view .LVU295
 1005 0004 0928     		cmp	r0, #9
 1006 0006 49D8     		bhi	.L82
 1007 0008 DFE800F0 		tbb	[pc, r0]
 1008              	.L85:
 1009 000c 5E       		.byte	(.L92-.L85)/2
 1010 000d 56       		.byte	(.L91-.L85)/2
 1011 000e 4D       		.byte	(.L90-.L85)/2
 1012 000f 50       		.byte	(.L89-.L85)/2
 1013 0010 05       		.byte	(.L88-.L85)/2
 1014 0011 48       		.byte	(.L82-.L85)/2
 1015 0012 8A       		.byte	(.L87-.L85)/2
 1016 0013 82       		.byte	(.L86-.L85)/2
 1017 0014 48       		.byte	(.L82-.L85)/2
 1018 0015 4A       		.byte	(.L84-.L85)/2
 1019              		.p2align 1
 1020              	.L88:
 346:/opt/XMClib/XMC_Peripheral_Library_v2.1.16/ThirdPartyLibraries/USBlib/USB/Core/XMC4000/USBController_XMC4000.c **** 	case XMC_USBD_EVENT_RESET:
 347:/opt/XMClib/XMC_Peripheral_Library_v2.1.16/ThirdPartyLibraries/USBlib/USB/Core/XMC4000/USBController_XMC4000.c **** 		USB_DeviceState = DEVICE_STATE_Default;
 1021              		.loc 1 347 3 view .LVU296
 1022              		.loc 1 347 19 is_stmt 0 view .LVU297
 1023 0016 474B     		ldr	r3, .L98
 1024 0018 0222     		movs	r2, #2
 1025 001a 1A70     		strb	r2, [r3]
 348:/opt/XMClib/XMC_Peripheral_Library_v2.1.16/ThirdPartyLibraries/USBlib/USB/Core/XMC4000/USBController_XMC4000.c **** 		device.EP0_State = IDLE;
 1026              		.loc 1 348 3 is_stmt 1 view .LVU298
 1027              		.loc 1 348 20 is_stmt 0 view .LVU299
 1028 001c 464B     		ldr	r3, .L98+4
 1029 001e 0125     		movs	r5, #1
 1030 0020 83F83B51 		strb	r5, [r3, #315]
 349:/opt/XMClib/XMC_Peripheral_Library_v2.1.16/ThirdPartyLibraries/USBlib/USB/Core/XMC4000/USBController_XMC4000.c **** 		device.RemoteWakeUp = 0;
 1031              		.loc 1 349 3 is_stmt 1 view .LVU300
 1032              		.loc 1 349 23 is_stmt 0 view .LVU301
 1033 0024 93F83E21 		ldrb	r2, [r3, #318]	@ zero_extendqisi2
 1034 0028 6FF38202 		bfc	r2, #2, #1
 1035 002c 83F83E21 		strb	r2, [r3, #318]
 350:/opt/XMClib/XMC_Peripheral_Library_v2.1.16/ThirdPartyLibraries/USBlib/USB/Core/XMC4000/USBController_XMC4000.c **** 		/* Reset endpoints and configuration */
 351:/opt/XMClib/XMC_Peripheral_Library_v2.1.16/ThirdPartyLibraries/USBlib/USB/Core/XMC4000/USBController_XMC4000.c **** 		for (i=0;i<(uint8_t)XMC_USBD_NUM_EPS; i++) {
 1036              		.loc 1 351 3 is_stmt 1 view .LVU302
 1037              	.LVL58:
 1038              		.loc 1 351 12 view .LVU303
 349:/opt/XMClib/XMC_Peripheral_Library_v2.1.16/ThirdPartyLibraries/USBlib/USB/Core/XMC4000/USBController_XMC4000.c **** 		device.RemoteWakeUp = 0;
 1039              		.loc 1 349 23 is_stmt 0 view .LVU304
 1040 0030 0024     		movs	r4, #0
 352:/opt/XMClib/XMC_Peripheral_Library_v2.1.16/ThirdPartyLibraries/USBlib/USB/Core/XMC4000/USBController_XMC4000.c **** 			device.Endpoints[i].InInUse = 0;
 1041              		.loc 1 352 32 view .LVU305
 1042 0032 1E46     		mov	r6, r3
 1043 0034 2C27     		movs	r7, #44
 1044 0036 01E0     		b	.L96
 1045              	.LVL59:
 1046              	.L93:
 1047              		.loc 1 352 32 view .LVU306
 1048 0038 0134     		adds	r4, r4, #1
 1049 003a 0135     		adds	r5, r5, #1
 1050              	.L96:
 1051              	.LVL60:
 1052              		.loc 1 352 4 is_stmt 1 view .LVU307
 1053              		.loc 1 352 32 is_stmt 0 view .LVU308
 1054 003c 07FB0463 		mla	r3, r7, r4, r6
 1055 0040 1A89     		ldrh	r2, [r3, #8]
 1056 0042 6FF30412 		bfc	r2, #4, #1
 1057 0046 1A81     		strh	r2, [r3, #8]	@ movhi
 353:/opt/XMClib/XMC_Peripheral_Library_v2.1.16/ThirdPartyLibraries/USBlib/USB/Core/XMC4000/USBController_XMC4000.c **** 			device.Endpoints[i].OutInUse = 0;
 1058              		.loc 1 353 4 is_stmt 1 view .LVU309
 1059              		.loc 1 353 33 is_stmt 0 view .LVU310
 1060 0048 1A89     		ldrh	r2, [r3, #8]
 1061 004a 6FF3C302 		bfc	r2, #3, #1
 1062 004e 1A81     		strh	r2, [r3, #8]	@ movhi
 354:/opt/XMClib/XMC_Peripheral_Library_v2.1.16/ThirdPartyLibraries/USBlib/USB/Core/XMC4000/USBController_XMC4000.c **** 			device.Endpoints[i].IsHalted = 0;
 1063              		.loc 1 354 4 is_stmt 1 view .LVU311
 1064              		.loc 1 354 33 is_stmt 0 view .LVU312
 1065 0050 1A7A     		ldrb	r2, [r3, #8]	@ zero_extendqisi2
 1066 0052 6FF38202 		bfc	r2, #2, #1
 1067 0056 1A72     		strb	r2, [r3, #8]
 355:/opt/XMClib/XMC_Peripheral_Library_v2.1.16/ThirdPartyLibraries/USBlib/USB/Core/XMC4000/USBController_XMC4000.c **** 			if (i!=0 && device.Endpoints[i].IsConfigured) {
 1068              		.loc 1 355 4 is_stmt 1 view .LVU313
 1069              		.loc 1 355 7 is_stmt 0 view .LVU314
 1070 0058 002C     		cmp	r4, #0
 1071 005a EDD0     		beq	.L93
 1072              		.loc 1 355 35 discriminator 1 view .LVU315
 1073 005c D3B2     		uxtb	r3, r2
 1074              		.loc 1 355 13 discriminator 1 view .LVU316
 1075 005e 13F0010F 		tst	r3, #1
 1076 0062 0ED0     		beq	.L94
 356:/opt/XMClib/XMC_Peripheral_Library_v2.1.16/ThirdPartyLibraries/USBlib/USB/Core/XMC4000/USBController_XMC4000.c **** 				device.Driver->EndpointUnconfigure(device.Endpoints[i].Address);
 1077              		.loc 1 356 5 is_stmt 1 view .LVU317
 1078 0064 07FB0468 		mla	r8, r7, r4, r6
 1079              		.loc 1 356 18 is_stmt 0 view .LVU318
 1080 0068 3368     		ldr	r3, [r6]
 1081              		.loc 1 356 5 view .LVU319
 1082 006a 1B6A     		ldr	r3, [r3, #32]
 1083 006c 98F80400 		ldrb	r0, [r8, #4]	@ zero_extendqisi2
 1084 0070 9847     		blx	r3
 1085              	.LVL61:
 357:/opt/XMClib/XMC_Peripheral_Library_v2.1.16/ThirdPartyLibraries/USBlib/USB/Core/XMC4000/USBController_XMC4000.c **** 				device.Endpoints[i].IsConfigured = 0;
 1086              		.loc 1 357 5 is_stmt 1 view .LVU320
 1087              		.loc 1 357 38 is_stmt 0 view .LVU321
 1088 0072 98F80830 		ldrb	r3, [r8, #8]	@ zero_extendqisi2
 358:/opt/XMClib/XMC_Peripheral_Library_v2.1.16/ThirdPartyLibraries/USBlib/USB/Core/XMC4000/USBController_XMC4000.c **** 				device.Endpoints[i].IsEnabled = 0;
 1089              		.loc 1 358 5 is_stmt 1 view .LVU322
 1090              		.loc 1 358 35 is_stmt 0 view .LVU323
 1091 0076 03F0FE03 		and	r3, r3, #254
 1092 007a 6FF34103 		bfc	r3, #1, #1
 1093 007e 88F80830 		strb	r3, [r8, #8]
 1094              	.L94:
 351:/opt/XMClib/XMC_Peripheral_Library_v2.1.16/ThirdPartyLibraries/USBlib/USB/Core/XMC4000/USBController_XMC4000.c **** 			device.Endpoints[i].InInUse = 0;
 1095              		.loc 1 351 41 is_stmt 1 discriminator 2 view .LVU324
 1096              	.LVL62:
 351:/opt/XMClib/XMC_Peripheral_Library_v2.1.16/ThirdPartyLibraries/USBlib/USB/Core/XMC4000/USBController_XMC4000.c **** 			device.Endpoints[i].InInUse = 0;
 1097              		.loc 1 351 12 discriminator 2 view .LVU325
 351:/opt/XMClib/XMC_Peripheral_Library_v2.1.16/ThirdPartyLibraries/USBlib/USB/Core/XMC4000/USBController_XMC4000.c **** 			device.Endpoints[i].InInUse = 0;
 1098              		.loc 1 351 3 is_stmt 0 discriminator 2 view .LVU326
 1099 0082 062D     		cmp	r5, #6
 1100 0084 D8DD     		ble	.L93
 359:/opt/XMClib/XMC_Peripheral_Library_v2.1.16/ThirdPartyLibraries/USBlib/USB/Core/XMC4000/USBController_XMC4000.c **** 			}
 360:/opt/XMClib/XMC_Peripheral_Library_v2.1.16/ThirdPartyLibraries/USBlib/USB/Core/XMC4000/USBController_XMC4000.c **** 		}
 361:/opt/XMClib/XMC_Peripheral_Library_v2.1.16/ThirdPartyLibraries/USBlib/USB/Core/XMC4000/USBController_XMC4000.c **** 		device.Configuration = 0;
 1101              		.loc 1 361 3 is_stmt 1 view .LVU327
 1102              		.loc 1 361 24 is_stmt 0 view .LVU328
 1103 0086 2C4B     		ldr	r3, .L98+4
 1104 0088 0022     		movs	r2, #0
 1105 008a 83F83921 		strb	r2, [r3, #313]
 362:/opt/XMClib/XMC_Peripheral_Library_v2.1.16/ThirdPartyLibraries/USBlib/USB/Core/XMC4000/USBController_XMC4000.c **** 		for (i=0;i<NUM_INTERFACES;i++) {
 1106              		.loc 1 362 3 is_stmt 1 view .LVU329
 1107              	.LVL63:
 1108              		.loc 1 362 12 view .LVU330
 363:/opt/XMClib/XMC_Peripheral_Library_v2.1.16/ThirdPartyLibraries/USBlib/USB/Core/XMC4000/USBController_XMC4000.c **** 			device.InterfaceSettings[i] = 0;
 1109              		.loc 1 363 4 view .LVU331
 1110              		.loc 1 363 32 is_stmt 0 view .LVU332
 1111 008e 83F83821 		strb	r2, [r3, #312]
 362:/opt/XMClib/XMC_Peripheral_Library_v2.1.16/ThirdPartyLibraries/USBlib/USB/Core/XMC4000/USBController_XMC4000.c **** 		for (i=0;i<NUM_INTERFACES;i++) {
 1112              		.loc 1 362 29 is_stmt 1 view .LVU333
 1113              	.LVL64:
 362:/opt/XMClib/XMC_Peripheral_Library_v2.1.16/ThirdPartyLibraries/USBlib/USB/Core/XMC4000/USBController_XMC4000.c **** 		for (i=0;i<NUM_INTERFACES;i++) {
 1114              		.loc 1 362 12 view .LVU334
 364:/opt/XMClib/XMC_Peripheral_Library_v2.1.16/ThirdPartyLibraries/USBlib/USB/Core/XMC4000/USBController_XMC4000.c **** 		}
 365:/opt/XMClib/XMC_Peripheral_Library_v2.1.16/ThirdPartyLibraries/USBlib/USB/Core/XMC4000/USBController_XMC4000.c **** 		device.Driver->EndpointReadStart(device.Endpoints[0].Address,24);
 1115              		.loc 1 365 3 view .LVU335
 1116              		.loc 1 365 16 is_stmt 0 view .LVU336
 1117 0092 1A68     		ldr	r2, [r3]
 1118              		.loc 1 365 3 view .LVU337
 1119 0094 926A     		ldr	r2, [r2, #40]
 1120 0096 1821     		movs	r1, #24
 1121 0098 1879     		ldrb	r0, [r3, #4]	@ zero_extendqisi2
 1122 009a 9047     		blx	r2
 1123              	.LVL65:
 366:/opt/XMClib/XMC_Peripheral_Library_v2.1.16/ThirdPartyLibraries/USBlib/USB/Core/XMC4000/USBController_XMC4000.c **** 		break;
 1124              		.loc 1 366 3 is_stmt 1 view .LVU338
 1125              	.L82:
 367:/opt/XMClib/XMC_Peripheral_Library_v2.1.16/ThirdPartyLibraries/USBlib/USB/Core/XMC4000/USBController_XMC4000.c **** 	case XMC_USBD_EVENT_SOF:
 368:/opt/XMClib/XMC_Peripheral_Library_v2.1.16/ThirdPartyLibraries/USBlib/USB/Core/XMC4000/USBController_XMC4000.c **** 		EVENT_USB_Device_StartOfFrame();
 369:/opt/XMClib/XMC_Peripheral_Library_v2.1.16/ThirdPartyLibraries/USBlib/USB/Core/XMC4000/USBController_XMC4000.c **** 		break;
 370:/opt/XMClib/XMC_Peripheral_Library_v2.1.16/ThirdPartyLibraries/USBlib/USB/Core/XMC4000/USBController_XMC4000.c **** 	case XMC_USBD_EVENT_CONNECT:
 371:/opt/XMClib/XMC_Peripheral_Library_v2.1.16/ThirdPartyLibraries/USBlib/USB/Core/XMC4000/USBController_XMC4000.c **** 		EVENT_USB_Device_Connect();
 372:/opt/XMClib/XMC_Peripheral_Library_v2.1.16/ThirdPartyLibraries/USBlib/USB/Core/XMC4000/USBController_XMC4000.c **** 		break;
 373:/opt/XMClib/XMC_Peripheral_Library_v2.1.16/ThirdPartyLibraries/USBlib/USB/Core/XMC4000/USBController_XMC4000.c **** 	case XMC_USBD_EVENT_DISCONNECT:
 374:/opt/XMClib/XMC_Peripheral_Library_v2.1.16/ThirdPartyLibraries/USBlib/USB/Core/XMC4000/USBController_XMC4000.c **** 		USB_DeviceState = DEVICE_STATE_Powered;
 375:/opt/XMClib/XMC_Peripheral_Library_v2.1.16/ThirdPartyLibraries/USBlib/USB/Core/XMC4000/USBController_XMC4000.c **** 		EVENT_USB_Device_Disconnect();
 376:/opt/XMClib/XMC_Peripheral_Library_v2.1.16/ThirdPartyLibraries/USBlib/USB/Core/XMC4000/USBController_XMC4000.c **** 		break;
 377:/opt/XMClib/XMC_Peripheral_Library_v2.1.16/ThirdPartyLibraries/USBlib/USB/Core/XMC4000/USBController_XMC4000.c **** 	case XMC_USBD_EVENT_POWER_OFF:
 378:/opt/XMClib/XMC_Peripheral_Library_v2.1.16/ThirdPartyLibraries/USBlib/USB/Core/XMC4000/USBController_XMC4000.c **** 		 USB_DeviceState = DEVICE_STATE_Unattached;
 379:/opt/XMClib/XMC_Peripheral_Library_v2.1.16/ThirdPartyLibraries/USBlib/USB/Core/XMC4000/USBController_XMC4000.c **** 		 device.Driver->EndpointUnconfigure(0);
 380:/opt/XMClib/XMC_Peripheral_Library_v2.1.16/ThirdPartyLibraries/USBlib/USB/Core/XMC4000/USBController_XMC4000.c **** 		 break;
 381:/opt/XMClib/XMC_Peripheral_Library_v2.1.16/ThirdPartyLibraries/USBlib/USB/Core/XMC4000/USBController_XMC4000.c ****     case XMC_USBD_EVENT_POWER_ON:
 382:/opt/XMClib/XMC_Peripheral_Library_v2.1.16/ThirdPartyLibraries/USBlib/USB/Core/XMC4000/USBController_XMC4000.c **** 		 USB_DeviceState = DEVICE_STATE_Powered;
 383:/opt/XMClib/XMC_Peripheral_Library_v2.1.16/ThirdPartyLibraries/USBlib/USB/Core/XMC4000/USBController_XMC4000.c **** 		 memset(&device,0x0,sizeof(USB_Device_t));
 384:/opt/XMClib/XMC_Peripheral_Library_v2.1.16/ThirdPartyLibraries/USBlib/USB/Core/XMC4000/USBController_XMC4000.c **** 		 device.Driver = &Driver_USBD0;
 385:/opt/XMClib/XMC_Peripheral_Library_v2.1.16/ThirdPartyLibraries/USBlib/USB/Core/XMC4000/USBController_XMC4000.c **** 		 device.EP0_State = IDLE;
 386:/opt/XMClib/XMC_Peripheral_Library_v2.1.16/ThirdPartyLibraries/USBlib/USB/Core/XMC4000/USBController_XMC4000.c **** 		 device.Endpoints[0].InBuffer = endpoint0_in_buffer;
 387:/opt/XMClib/XMC_Peripheral_Library_v2.1.16/ThirdPartyLibraries/USBlib/USB/Core/XMC4000/USBController_XMC4000.c **** 		 device.Endpoints[0].InBufferLength = 256;
 388:/opt/XMClib/XMC_Peripheral_Library_v2.1.16/ThirdPartyLibraries/USBlib/USB/Core/XMC4000/USBController_XMC4000.c **** 		 device.Endpoints[0].OutBuffer = endpoint0_out_buffer;
 389:/opt/XMClib/XMC_Peripheral_Library_v2.1.16/ThirdPartyLibraries/USBlib/USB/Core/XMC4000/USBController_XMC4000.c **** 		 device.Endpoints[0].OutBufferLength = 256;
 390:/opt/XMClib/XMC_Peripheral_Library_v2.1.16/ThirdPartyLibraries/USBlib/USB/Core/XMC4000/USBController_XMC4000.c **** 		 device.Endpoints[0].Direction = 0;
 391:/opt/XMClib/XMC_Peripheral_Library_v2.1.16/ThirdPartyLibraries/USBlib/USB/Core/XMC4000/USBController_XMC4000.c **** 		 device.Endpoints[0].IsConfigured = 1;
 392:/opt/XMClib/XMC_Peripheral_Library_v2.1.16/ThirdPartyLibraries/USBlib/USB/Core/XMC4000/USBController_XMC4000.c **** 		 device.Endpoints[0].IsEnabled = 1;
 393:/opt/XMClib/XMC_Peripheral_Library_v2.1.16/ThirdPartyLibraries/USBlib/USB/Core/XMC4000/USBController_XMC4000.c **** 		 device.Endpoints[0].MaxPacketSize = 64;
 394:/opt/XMClib/XMC_Peripheral_Library_v2.1.16/ThirdPartyLibraries/USBlib/USB/Core/XMC4000/USBController_XMC4000.c **** 
 395:/opt/XMClib/XMC_Peripheral_Library_v2.1.16/ThirdPartyLibraries/USBlib/USB/Core/XMC4000/USBController_XMC4000.c **** 		  /* then configure endpoint 0 */
 396:/opt/XMClib/XMC_Peripheral_Library_v2.1.16/ThirdPartyLibraries/USBlib/USB/Core/XMC4000/USBController_XMC4000.c **** 		 device.Driver->EndpointConfigure(0,XMC_USBD_ENDPOINT_TYPE_CONTROL,
 397:/opt/XMClib/XMC_Peripheral_Library_v2.1.16/ThirdPartyLibraries/USBlib/USB/Core/XMC4000/USBController_XMC4000.c **** 					   (uint8_t)XMC_USBD_MAX_PACKET_SIZE);
 398:/opt/XMClib/XMC_Peripheral_Library_v2.1.16/ThirdPartyLibraries/USBlib/USB/Core/XMC4000/USBController_XMC4000.c **** 
 399:/opt/XMClib/XMC_Peripheral_Library_v2.1.16/ThirdPartyLibraries/USBlib/USB/Core/XMC4000/USBController_XMC4000.c **** 		break;
 400:/opt/XMClib/XMC_Peripheral_Library_v2.1.16/ThirdPartyLibraries/USBlib/USB/Core/XMC4000/USBController_XMC4000.c **** 	case XMC_USBD_EVENT_REMOTE_WAKEUP:
 401:/opt/XMClib/XMC_Peripheral_Library_v2.1.16/ThirdPartyLibraries/USBlib/USB/Core/XMC4000/USBController_XMC4000.c **** 		break;
 402:/opt/XMClib/XMC_Peripheral_Library_v2.1.16/ThirdPartyLibraries/USBlib/USB/Core/XMC4000/USBController_XMC4000.c **** 	case XMC_USBD_EVENT_RESUME:
 403:/opt/XMClib/XMC_Peripheral_Library_v2.1.16/ThirdPartyLibraries/USBlib/USB/Core/XMC4000/USBController_XMC4000.c **** 		USB_DeviceState = device.PreSuspendDeviceState;
 404:/opt/XMClib/XMC_Peripheral_Library_v2.1.16/ThirdPartyLibraries/USBlib/USB/Core/XMC4000/USBController_XMC4000.c **** 		EVENT_USB_Device_WakeUp();
 405:/opt/XMClib/XMC_Peripheral_Library_v2.1.16/ThirdPartyLibraries/USBlib/USB/Core/XMC4000/USBController_XMC4000.c **** 		break;
 406:/opt/XMClib/XMC_Peripheral_Library_v2.1.16/ThirdPartyLibraries/USBlib/USB/Core/XMC4000/USBController_XMC4000.c **** 	case XMC_USBD_EVENT_SUSPEND:
 407:/opt/XMClib/XMC_Peripheral_Library_v2.1.16/ThirdPartyLibraries/USBlib/USB/Core/XMC4000/USBController_XMC4000.c **** 		device.PreSuspendDeviceState = USB_DeviceState;
 408:/opt/XMClib/XMC_Peripheral_Library_v2.1.16/ThirdPartyLibraries/USBlib/USB/Core/XMC4000/USBController_XMC4000.c **** 		USB_DeviceState = DEVICE_STATE_Suspended;
 409:/opt/XMClib/XMC_Peripheral_Library_v2.1.16/ThirdPartyLibraries/USBlib/USB/Core/XMC4000/USBController_XMC4000.c **** 		EVENT_USB_Device_Suspend();
 410:/opt/XMClib/XMC_Peripheral_Library_v2.1.16/ThirdPartyLibraries/USBlib/USB/Core/XMC4000/USBController_XMC4000.c **** 		break;
 411:/opt/XMClib/XMC_Peripheral_Library_v2.1.16/ThirdPartyLibraries/USBlib/USB/Core/XMC4000/USBController_XMC4000.c **** 	default:
 412:/opt/XMClib/XMC_Peripheral_Library_v2.1.16/ThirdPartyLibraries/USBlib/USB/Core/XMC4000/USBController_XMC4000.c **** 		return;
 413:/opt/XMClib/XMC_Peripheral_Library_v2.1.16/ThirdPartyLibraries/USBlib/USB/Core/XMC4000/USBController_XMC4000.c **** 	}
 414:/opt/XMClib/XMC_Peripheral_Library_v2.1.16/ThirdPartyLibraries/USBlib/USB/Core/XMC4000/USBController_XMC4000.c **** }
 1126              		.loc 1 414 1 is_stmt 0 view .LVU339
 1127 009c BDE8F081 		pop	{r4, r5, r6, r7, r8, pc}
 1128              	.LVL66:
 1129              	.L84:
 368:/opt/XMClib/XMC_Peripheral_Library_v2.1.16/ThirdPartyLibraries/USBlib/USB/Core/XMC4000/USBController_XMC4000.c **** 		break;
 1130              		.loc 1 368 3 is_stmt 1 view .LVU340
 1131 00a0 FFF7FEFF 		bl	EVENT_USB_Device_StartOfFrame
 1132              	.LVL67:
 369:/opt/XMClib/XMC_Peripheral_Library_v2.1.16/ThirdPartyLibraries/USBlib/USB/Core/XMC4000/USBController_XMC4000.c **** 	case XMC_USBD_EVENT_CONNECT:
 1133              		.loc 1 369 3 view .LVU341
 1134 00a4 FAE7     		b	.L82
 1135              	.LVL68:
 1136              	.L90:
 371:/opt/XMClib/XMC_Peripheral_Library_v2.1.16/ThirdPartyLibraries/USBlib/USB/Core/XMC4000/USBController_XMC4000.c **** 		break;
 1137              		.loc 1 371 3 view .LVU342
 1138 00a6 FFF7FEFF 		bl	EVENT_USB_Device_Connect
 1139              	.LVL69:
 372:/opt/XMClib/XMC_Peripheral_Library_v2.1.16/ThirdPartyLibraries/USBlib/USB/Core/XMC4000/USBController_XMC4000.c **** 	case XMC_USBD_EVENT_DISCONNECT:
 1140              		.loc 1 372 3 view .LVU343
 1141 00aa F7E7     		b	.L82
 1142              	.LVL70:
 1143              	.L89:
 374:/opt/XMClib/XMC_Peripheral_Library_v2.1.16/ThirdPartyLibraries/USBlib/USB/Core/XMC4000/USBController_XMC4000.c **** 		EVENT_USB_Device_Disconnect();
 1144              		.loc 1 374 3 view .LVU344
 374:/opt/XMClib/XMC_Peripheral_Library_v2.1.16/ThirdPartyLibraries/USBlib/USB/Core/XMC4000/USBController_XMC4000.c **** 		EVENT_USB_Device_Disconnect();
 1145              		.loc 1 374 19 is_stmt 0 view .LVU345
 1146 00ac 214B     		ldr	r3, .L98
 1147 00ae 0122     		movs	r2, #1
 1148 00b0 1A70     		strb	r2, [r3]
 375:/opt/XMClib/XMC_Peripheral_Library_v2.1.16/ThirdPartyLibraries/USBlib/USB/Core/XMC4000/USBController_XMC4000.c **** 		break;
 1149              		.loc 1 375 3 is_stmt 1 view .LVU346
 1150 00b2 FFF7FEFF 		bl	EVENT_USB_Device_Disconnect
 1151              	.LVL71:
 376:/opt/XMClib/XMC_Peripheral_Library_v2.1.16/ThirdPartyLibraries/USBlib/USB/Core/XMC4000/USBController_XMC4000.c **** 	case XMC_USBD_EVENT_POWER_OFF:
 1152              		.loc 1 376 3 view .LVU347
 1153 00b6 F1E7     		b	.L82
 1154              	.LVL72:
 1155              	.L91:
 378:/opt/XMClib/XMC_Peripheral_Library_v2.1.16/ThirdPartyLibraries/USBlib/USB/Core/XMC4000/USBController_XMC4000.c **** 		 device.Driver->EndpointUnconfigure(0);
 1156              		.loc 1 378 4 view .LVU348
 378:/opt/XMClib/XMC_Peripheral_Library_v2.1.16/ThirdPartyLibraries/USBlib/USB/Core/XMC4000/USBController_XMC4000.c **** 		 device.Driver->EndpointUnconfigure(0);
 1157              		.loc 1 378 20 is_stmt 0 view .LVU349
 1158 00b8 0020     		movs	r0, #0
 1159              	.LVL73:
 378:/opt/XMClib/XMC_Peripheral_Library_v2.1.16/ThirdPartyLibraries/USBlib/USB/Core/XMC4000/USBController_XMC4000.c **** 		 device.Driver->EndpointUnconfigure(0);
 1160              		.loc 1 378 20 view .LVU350
 1161 00ba 1E4B     		ldr	r3, .L98
 1162 00bc 1870     		strb	r0, [r3]
 379:/opt/XMClib/XMC_Peripheral_Library_v2.1.16/ThirdPartyLibraries/USBlib/USB/Core/XMC4000/USBController_XMC4000.c **** 		 break;
 1163              		.loc 1 379 4 is_stmt 1 view .LVU351
 379:/opt/XMClib/XMC_Peripheral_Library_v2.1.16/ThirdPartyLibraries/USBlib/USB/Core/XMC4000/USBController_XMC4000.c **** 		 break;
 1164              		.loc 1 379 10 is_stmt 0 view .LVU352
 1165 00be 1E4B     		ldr	r3, .L98+4
 379:/opt/XMClib/XMC_Peripheral_Library_v2.1.16/ThirdPartyLibraries/USBlib/USB/Core/XMC4000/USBController_XMC4000.c **** 		 break;
 1166              		.loc 1 379 17 view .LVU353
 1167 00c0 1B68     		ldr	r3, [r3]
 379:/opt/XMClib/XMC_Peripheral_Library_v2.1.16/ThirdPartyLibraries/USBlib/USB/Core/XMC4000/USBController_XMC4000.c **** 		 break;
 1168              		.loc 1 379 4 view .LVU354
 1169 00c2 1B6A     		ldr	r3, [r3, #32]
 1170 00c4 9847     		blx	r3
 1171              	.LVL74:
 380:/opt/XMClib/XMC_Peripheral_Library_v2.1.16/ThirdPartyLibraries/USBlib/USB/Core/XMC4000/USBController_XMC4000.c ****     case XMC_USBD_EVENT_POWER_ON:
 1172              		.loc 1 380 4 is_stmt 1 view .LVU355
 1173 00c6 E9E7     		b	.L82
 1174              	.LVL75:
 1175              	.L92:
 382:/opt/XMClib/XMC_Peripheral_Library_v2.1.16/ThirdPartyLibraries/USBlib/USB/Core/XMC4000/USBController_XMC4000.c **** 		 memset(&device,0x0,sizeof(USB_Device_t));
 1176              		.loc 1 382 4 view .LVU356
 382:/opt/XMClib/XMC_Peripheral_Library_v2.1.16/ThirdPartyLibraries/USBlib/USB/Core/XMC4000/USBController_XMC4000.c **** 		 memset(&device,0x0,sizeof(USB_Device_t));
 1177              		.loc 1 382 20 is_stmt 0 view .LVU357
 1178 00c8 0125     		movs	r5, #1
 1179 00ca 1A4B     		ldr	r3, .L98
 1180 00cc 1D70     		strb	r5, [r3]
 383:/opt/XMClib/XMC_Peripheral_Library_v2.1.16/ThirdPartyLibraries/USBlib/USB/Core/XMC4000/USBController_XMC4000.c **** 		 device.Driver = &Driver_USBD0;
 1181              		.loc 1 383 4 is_stmt 1 view .LVU358
 1182 00ce 1A4C     		ldr	r4, .L98+4
 1183 00d0 4FF4A072 		mov	r2, #320
 1184 00d4 0021     		movs	r1, #0
 1185 00d6 2046     		mov	r0, r4
 1186              	.LVL76:
 383:/opt/XMClib/XMC_Peripheral_Library_v2.1.16/ThirdPartyLibraries/USBlib/USB/Core/XMC4000/USBController_XMC4000.c **** 		 device.Driver = &Driver_USBD0;
 1187              		.loc 1 383 4 is_stmt 0 view .LVU359
 1188 00d8 FFF7FEFF 		bl	memset
 1189              	.LVL77:
 384:/opt/XMClib/XMC_Peripheral_Library_v2.1.16/ThirdPartyLibraries/USBlib/USB/Core/XMC4000/USBController_XMC4000.c **** 		 device.EP0_State = IDLE;
 1190              		.loc 1 384 4 is_stmt 1 view .LVU360
 384:/opt/XMClib/XMC_Peripheral_Library_v2.1.16/ThirdPartyLibraries/USBlib/USB/Core/XMC4000/USBController_XMC4000.c **** 		 device.EP0_State = IDLE;
 1191              		.loc 1 384 18 is_stmt 0 view .LVU361
 1192 00dc 174B     		ldr	r3, .L98+8
 1193 00de 2360     		str	r3, [r4]
 385:/opt/XMClib/XMC_Peripheral_Library_v2.1.16/ThirdPartyLibraries/USBlib/USB/Core/XMC4000/USBController_XMC4000.c **** 		 device.Endpoints[0].InBuffer = endpoint0_in_buffer;
 1194              		.loc 1 385 4 is_stmt 1 view .LVU362
 385:/opt/XMClib/XMC_Peripheral_Library_v2.1.16/ThirdPartyLibraries/USBlib/USB/Core/XMC4000/USBController_XMC4000.c **** 		 device.Endpoints[0].InBuffer = endpoint0_in_buffer;
 1195              		.loc 1 385 21 is_stmt 0 view .LVU363
 1196 00e0 84F83B51 		strb	r5, [r4, #315]
 386:/opt/XMClib/XMC_Peripheral_Library_v2.1.16/ThirdPartyLibraries/USBlib/USB/Core/XMC4000/USBController_XMC4000.c **** 		 device.Endpoints[0].InBufferLength = 256;
 1197              		.loc 1 386 4 is_stmt 1 view .LVU364
 386:/opt/XMClib/XMC_Peripheral_Library_v2.1.16/ThirdPartyLibraries/USBlib/USB/Core/XMC4000/USBController_XMC4000.c **** 		 device.Endpoints[0].InBufferLength = 256;
 1198              		.loc 1 386 33 is_stmt 0 view .LVU365
 1199 00e4 04F5A072 		add	r2, r4, #320
 1200 00e8 2262     		str	r2, [r4, #32]
 387:/opt/XMClib/XMC_Peripheral_Library_v2.1.16/ThirdPartyLibraries/USBlib/USB/Core/XMC4000/USBController_XMC4000.c **** 		 device.Endpoints[0].OutBuffer = endpoint0_out_buffer;
 1201              		.loc 1 387 4 is_stmt 1 view .LVU366
 387:/opt/XMClib/XMC_Peripheral_Library_v2.1.16/ThirdPartyLibraries/USBlib/USB/Core/XMC4000/USBController_XMC4000.c **** 		 device.Endpoints[0].OutBuffer = endpoint0_out_buffer;
 1202              		.loc 1 387 39 is_stmt 0 view .LVU367
 1203 00ea 4FF48072 		mov	r2, #256
 1204 00ee 6262     		str	r2, [r4, #36]
 388:/opt/XMClib/XMC_Peripheral_Library_v2.1.16/ThirdPartyLibraries/USBlib/USB/Core/XMC4000/USBController_XMC4000.c **** 		 device.Endpoints[0].OutBufferLength = 256;
 1205              		.loc 1 388 4 is_stmt 1 view .LVU368
 388:/opt/XMClib/XMC_Peripheral_Library_v2.1.16/ThirdPartyLibraries/USBlib/USB/Core/XMC4000/USBController_XMC4000.c **** 		 device.Endpoints[0].OutBufferLength = 256;
 1206              		.loc 1 388 34 is_stmt 0 view .LVU369
 1207 00f0 04F51071 		add	r1, r4, #576
 1208 00f4 6161     		str	r1, [r4, #20]
 389:/opt/XMClib/XMC_Peripheral_Library_v2.1.16/ThirdPartyLibraries/USBlib/USB/Core/XMC4000/USBController_XMC4000.c **** 		 device.Endpoints[0].Direction = 0;
 1209              		.loc 1 389 4 is_stmt 1 view .LVU370
 389:/opt/XMClib/XMC_Peripheral_Library_v2.1.16/ThirdPartyLibraries/USBlib/USB/Core/XMC4000/USBController_XMC4000.c **** 		 device.Endpoints[0].Direction = 0;
 1210              		.loc 1 389 40 is_stmt 0 view .LVU371
 1211 00f6 A261     		str	r2, [r4, #24]
 390:/opt/XMClib/XMC_Peripheral_Library_v2.1.16/ThirdPartyLibraries/USBlib/USB/Core/XMC4000/USBController_XMC4000.c **** 		 device.Endpoints[0].IsConfigured = 1;
 1212              		.loc 1 390 4 is_stmt 1 view .LVU372
 391:/opt/XMClib/XMC_Peripheral_Library_v2.1.16/ThirdPartyLibraries/USBlib/USB/Core/XMC4000/USBController_XMC4000.c **** 		 device.Endpoints[0].IsEnabled = 1;
 1213              		.loc 1 391 4 view .LVU373
 392:/opt/XMClib/XMC_Peripheral_Library_v2.1.16/ThirdPartyLibraries/USBlib/USB/Core/XMC4000/USBController_XMC4000.c **** 		 device.Endpoints[0].MaxPacketSize = 64;
 1214              		.loc 1 392 4 view .LVU374
 392:/opt/XMClib/XMC_Peripheral_Library_v2.1.16/ThirdPartyLibraries/USBlib/USB/Core/XMC4000/USBController_XMC4000.c **** 		 device.Endpoints[0].MaxPacketSize = 64;
 1215              		.loc 1 392 34 is_stmt 0 view .LVU375
 1216 00f8 0322     		movs	r2, #3
 1217 00fa 2272     		strb	r2, [r4, #8]
 393:/opt/XMClib/XMC_Peripheral_Library_v2.1.16/ThirdPartyLibraries/USBlib/USB/Core/XMC4000/USBController_XMC4000.c **** 
 1218              		.loc 1 393 4 is_stmt 1 view .LVU376
 393:/opt/XMClib/XMC_Peripheral_Library_v2.1.16/ThirdPartyLibraries/USBlib/USB/Core/XMC4000/USBController_XMC4000.c **** 
 1219              		.loc 1 393 38 is_stmt 0 view .LVU377
 1220 00fc 2189     		ldrh	r1, [r4, #8]
 1221 00fe 4022     		movs	r2, #64
 1222 0100 62F38C11 		bfi	r1, r2, #6, #7
 1223 0104 2181     		strh	r1, [r4, #8]	@ movhi
 396:/opt/XMClib/XMC_Peripheral_Library_v2.1.16/ThirdPartyLibraries/USBlib/USB/Core/XMC4000/USBController_XMC4000.c **** 					   (uint8_t)XMC_USBD_MAX_PACKET_SIZE);
 1224              		.loc 1 396 4 is_stmt 1 view .LVU378
 1225 0106 DB69     		ldr	r3, [r3, #28]
 1226 0108 0021     		movs	r1, #0
 1227 010a 0846     		mov	r0, r1
 1228 010c 9847     		blx	r3
 1229              	.LVL78:
 399:/opt/XMClib/XMC_Peripheral_Library_v2.1.16/ThirdPartyLibraries/USBlib/USB/Core/XMC4000/USBController_XMC4000.c **** 	case XMC_USBD_EVENT_REMOTE_WAKEUP:
 1230              		.loc 1 399 3 view .LVU379
 1231 010e C5E7     		b	.L82
 1232              	.LVL79:
 1233              	.L86:
 403:/opt/XMClib/XMC_Peripheral_Library_v2.1.16/ThirdPartyLibraries/USBlib/USB/Core/XMC4000/USBController_XMC4000.c **** 		EVENT_USB_Device_WakeUp();
 1234              		.loc 1 403 3 view .LVU380
 403:/opt/XMClib/XMC_Peripheral_Library_v2.1.16/ThirdPartyLibraries/USBlib/USB/Core/XMC4000/USBController_XMC4000.c **** 		EVENT_USB_Device_WakeUp();
 1235              		.loc 1 403 27 is_stmt 0 view .LVU381
 1236 0110 094B     		ldr	r3, .L98+4
 1237 0112 93F83A21 		ldrb	r2, [r3, #314]	@ zero_extendqisi2
 403:/opt/XMClib/XMC_Peripheral_Library_v2.1.16/ThirdPartyLibraries/USBlib/USB/Core/XMC4000/USBController_XMC4000.c **** 		EVENT_USB_Device_WakeUp();
 1238              		.loc 1 403 19 view .LVU382
 1239 0116 074B     		ldr	r3, .L98
 1240 0118 1A70     		strb	r2, [r3]
 404:/opt/XMClib/XMC_Peripheral_Library_v2.1.16/ThirdPartyLibraries/USBlib/USB/Core/XMC4000/USBController_XMC4000.c **** 		break;
 1241              		.loc 1 404 3 is_stmt 1 view .LVU383
 1242 011a FFF7FEFF 		bl	EVENT_USB_Device_WakeUp
 1243              	.LVL80:
 405:/opt/XMClib/XMC_Peripheral_Library_v2.1.16/ThirdPartyLibraries/USBlib/USB/Core/XMC4000/USBController_XMC4000.c **** 	case XMC_USBD_EVENT_SUSPEND:
 1244              		.loc 1 405 3 view .LVU384
 1245 011e BDE7     		b	.L82
 1246              	.LVL81:
 1247              	.L87:
 407:/opt/XMClib/XMC_Peripheral_Library_v2.1.16/ThirdPartyLibraries/USBlib/USB/Core/XMC4000/USBController_XMC4000.c **** 		USB_DeviceState = DEVICE_STATE_Suspended;
 1248              		.loc 1 407 3 view .LVU385
 407:/opt/XMClib/XMC_Peripheral_Library_v2.1.16/ThirdPartyLibraries/USBlib/USB/Core/XMC4000/USBController_XMC4000.c **** 		USB_DeviceState = DEVICE_STATE_Suspended;
 1249              		.loc 1 407 32 is_stmt 0 view .LVU386
 1250 0120 044B     		ldr	r3, .L98
 1251 0122 1978     		ldrb	r1, [r3]	@ zero_extendqisi2
 1252 0124 044A     		ldr	r2, .L98+4
 1253 0126 82F83A11 		strb	r1, [r2, #314]
 408:/opt/XMClib/XMC_Peripheral_Library_v2.1.16/ThirdPartyLibraries/USBlib/USB/Core/XMC4000/USBController_XMC4000.c **** 		EVENT_USB_Device_Suspend();
 1254              		.loc 1 408 3 is_stmt 1 view .LVU387
 408:/opt/XMClib/XMC_Peripheral_Library_v2.1.16/ThirdPartyLibraries/USBlib/USB/Core/XMC4000/USBController_XMC4000.c **** 		EVENT_USB_Device_Suspend();
 1255              		.loc 1 408 19 is_stmt 0 view .LVU388
 1256 012a 0522     		movs	r2, #5
 1257 012c 1A70     		strb	r2, [r3]
 409:/opt/XMClib/XMC_Peripheral_Library_v2.1.16/ThirdPartyLibraries/USBlib/USB/Core/XMC4000/USBController_XMC4000.c **** 		break;
 1258              		.loc 1 409 3 is_stmt 1 view .LVU389
 1259 012e FFF7FEFF 		bl	EVENT_USB_Device_Suspend
 1260              	.LVL82:
 410:/opt/XMClib/XMC_Peripheral_Library_v2.1.16/ThirdPartyLibraries/USBlib/USB/Core/XMC4000/USBController_XMC4000.c **** 	default:
 1261              		.loc 1 410 3 view .LVU390
 1262 0132 B3E7     		b	.L82
 1263              	.L99:
 1264              		.align	2
 1265              	.L98:
 1266 0134 00000000 		.word	USB_DeviceState
 1267 0138 00000000 		.word	.LANCHOR0
 1268 013c 00000000 		.word	Driver_USBD0
 1269              		.cfi_endproc
 1270              	.LFE193:
 1272              		.section	.text.USBD_SignalEndpointEvent_Handler,"ax",%progbits
 1273              		.align	1
 1274              		.global	USBD_SignalEndpointEvent_Handler
 1275              		.syntax unified
 1276              		.thumb
 1277              		.thumb_func
 1279              	USBD_SignalEndpointEvent_Handler:
 1280              	.LVL83:
 1281              	.LFB194:
 415:/opt/XMClib/XMC_Peripheral_Library_v2.1.16/ThirdPartyLibraries/USBlib/USB/Core/XMC4000/USBController_XMC4000.c **** 
 416:/opt/XMClib/XMC_Peripheral_Library_v2.1.16/ThirdPartyLibraries/USBlib/USB/Core/XMC4000/USBController_XMC4000.c **** /**
 417:/opt/XMClib/XMC_Peripheral_Library_v2.1.16/ThirdPartyLibraries/USBlib/USB/Core/XMC4000/USBController_XMC4000.c ****  * \brief Endpoint event handler for the XMC driver
 418:/opt/XMClib/XMC_Peripheral_Library_v2.1.16/ThirdPartyLibraries/USBlib/USB/Core/XMC4000/USBController_XMC4000.c ****  *
 419:/opt/XMClib/XMC_Peripheral_Library_v2.1.16/ThirdPartyLibraries/USBlib/USB/Core/XMC4000/USBController_XMC4000.c ****  * If the driver detects an event (See \ref USB_USBD_EP_EVENT) for a specified endpoint it
 420:/opt/XMClib/XMC_Peripheral_Library_v2.1.16/ThirdPartyLibraries/USBlib/USB/Core/XMC4000/USBController_XMC4000.c ****  * calls this function. Based on the event some further action is taken, e.g. process control
 421:/opt/XMClib/XMC_Peripheral_Library_v2.1.16/ThirdPartyLibraries/USBlib/USB/Core/XMC4000/USBController_XMC4000.c ****  * request or update transfer information and read data from the driver into the core buffer.
 422:/opt/XMClib/XMC_Peripheral_Library_v2.1.16/ThirdPartyLibraries/USBlib/USB/Core/XMC4000/USBController_XMC4000.c ****  *
 423:/opt/XMClib/XMC_Peripheral_Library_v2.1.16/ThirdPartyLibraries/USBlib/USB/Core/XMC4000/USBController_XMC4000.c ****  * \param[in] ep_addr Endpoint address
 424:/opt/XMClib/XMC_Peripheral_Library_v2.1.16/ThirdPartyLibraries/USBlib/USB/Core/XMC4000/USBController_XMC4000.c ****  * \param[in] ep_event Endpoint event type
 425:/opt/XMClib/XMC_Peripheral_Library_v2.1.16/ThirdPartyLibraries/USBlib/USB/Core/XMC4000/USBController_XMC4000.c ****  *
 426:/opt/XMClib/XMC_Peripheral_Library_v2.1.16/ThirdPartyLibraries/USBlib/USB/Core/XMC4000/USBController_XMC4000.c ****  */
 427:/opt/XMClib/XMC_Peripheral_Library_v2.1.16/ThirdPartyLibraries/USBlib/USB/Core/XMC4000/USBController_XMC4000.c **** void USBD_SignalEndpointEvent_Handler (uint8_t ep_addr, XMC_USBD_EP_EVENT_t ep_event) {
 1282              		.loc 1 427 87 view -0
 1283              		.cfi_startproc
 1284              		@ args = 0, pretend = 0, frame = 0
 1285              		@ frame_needed = 0, uses_anonymous_args = 0
 1286              		.loc 1 427 87 is_stmt 0 view .LVU392
 1287 0000 F8B5     		push	{r3, r4, r5, r6, r7, lr}
 1288              	.LCFI9:
 1289              		.cfi_def_cfa_offset 24
 1290              		.cfi_offset 3, -24
 1291              		.cfi_offset 4, -20
 1292              		.cfi_offset 5, -16
 1293              		.cfi_offset 6, -12
 1294              		.cfi_offset 7, -8
 1295              		.cfi_offset 14, -4
 428:/opt/XMClib/XMC_Peripheral_Library_v2.1.16/ThirdPartyLibraries/USBlib/USB/Core/XMC4000/USBController_XMC4000.c **** 	USBD_Endpoint_t *ep =  &device.Endpoints[ep_addr & ENDPOINT_EPNUM_MASK];
 1296              		.loc 1 428 2 is_stmt 1 view .LVU393
 1297 0002 00F00F04 		and	r4, r0, #15
 1298              	.LVL84:
 429:/opt/XMClib/XMC_Peripheral_Library_v2.1.16/ThirdPartyLibraries/USBlib/USB/Core/XMC4000/USBController_XMC4000.c **** 	uint8_t temp_num,temp_dir;
 1299              		.loc 1 429 2 view .LVU394
 430:/opt/XMClib/XMC_Peripheral_Library_v2.1.16/ThirdPartyLibraries/USBlib/USB/Core/XMC4000/USBController_XMC4000.c **** 	int32_t data_count;
 1300              		.loc 1 430 2 view .LVU395
 431:/opt/XMClib/XMC_Peripheral_Library_v2.1.16/ThirdPartyLibraries/USBlib/USB/Core/XMC4000/USBController_XMC4000.c **** 	/* store CurrentEndpoint and direction for restore after handling */
 432:/opt/XMClib/XMC_Peripheral_Library_v2.1.16/ThirdPartyLibraries/USBlib/USB/Core/XMC4000/USBController_XMC4000.c **** 	temp_num = device.CurrentEndpoint;
 1301              		.loc 1 432 2 view .LVU396
 1302              		.loc 1 432 11 is_stmt 0 view .LVU397
 1303 0006 494B     		ldr	r3, .L111
 1304 0008 93F83C61 		ldrb	r6, [r3, #316]	@ zero_extendqisi2
 1305              	.LVL85:
 433:/opt/XMClib/XMC_Peripheral_Library_v2.1.16/ThirdPartyLibraries/USBlib/USB/Core/XMC4000/USBController_XMC4000.c **** 	temp_dir = device.CurrentDirection;
 1306              		.loc 1 433 2 is_stmt 1 view .LVU398
 1307              		.loc 1 433 11 is_stmt 0 view .LVU399
 1308 000c 93F83D51 		ldrb	r5, [r3, #317]	@ zero_extendqisi2
 1309              	.LVL86:
 434:/opt/XMClib/XMC_Peripheral_Library_v2.1.16/ThirdPartyLibraries/USBlib/USB/Core/XMC4000/USBController_XMC4000.c **** 	/* select the given endpoint */
 435:/opt/XMClib/XMC_Peripheral_Library_v2.1.16/ThirdPartyLibraries/USBlib/USB/Core/XMC4000/USBController_XMC4000.c **** 	device.CurrentEndpoint = ep_addr & ENDPOINT_EPNUM_MASK;
 1310              		.loc 1 435 2 is_stmt 1 view .LVU400
 1311              		.loc 1 435 25 is_stmt 0 view .LVU401
 1312 0010 83F83C41 		strb	r4, [r3, #316]
 436:/opt/XMClib/XMC_Peripheral_Library_v2.1.16/ThirdPartyLibraries/USBlib/USB/Core/XMC4000/USBController_XMC4000.c **** 	device.CurrentDirection = ep_addr & ENDPOINT_DIR_MASK;
 1313              		.loc 1 436 2 is_stmt 1 view .LVU402
 1314              		.loc 1 436 36 is_stmt 0 view .LVU403
 1315 0014 20F07F00 		bic	r0, r0, #127
 1316              	.LVL87:
 1317              		.loc 1 436 26 view .LVU404
 1318 0018 83F83D01 		strb	r0, [r3, #317]
 437:/opt/XMClib/XMC_Peripheral_Library_v2.1.16/ThirdPartyLibraries/USBlib/USB/Core/XMC4000/USBController_XMC4000.c **** 	/* choose what to do based on the event */
 438:/opt/XMClib/XMC_Peripheral_Library_v2.1.16/ThirdPartyLibraries/USBlib/USB/Core/XMC4000/USBController_XMC4000.c **** 	switch (ep_event) {
 1319              		.loc 1 438 2 is_stmt 1 view .LVU405
 1320 001c 0129     		cmp	r1, #1
 1321 001e 14D0     		beq	.L101
 1322 0020 0229     		cmp	r1, #2
 1323 0022 38D0     		beq	.L102
 1324 0024 29B1     		cbz	r1, .L109
 1325              	.LVL88:
 1326              	.L103:
 439:/opt/XMClib/XMC_Peripheral_Library_v2.1.16/ThirdPartyLibraries/USBlib/USB/Core/XMC4000/USBController_XMC4000.c **** 	case XMC_USBD_EP_EVENT_SETUP:
 440:/opt/XMClib/XMC_Peripheral_Library_v2.1.16/ThirdPartyLibraries/USBlib/USB/Core/XMC4000/USBController_XMC4000.c **** 		ep->OutInUse = 0;
 441:/opt/XMClib/XMC_Peripheral_Library_v2.1.16/ThirdPartyLibraries/USBlib/USB/Core/XMC4000/USBController_XMC4000.c **** 		switch(device.CurrentEndpoint) {
 442:/opt/XMClib/XMC_Peripheral_Library_v2.1.16/ThirdPartyLibraries/USBlib/USB/Core/XMC4000/USBController_XMC4000.c **** 		case 0:
 443:/opt/XMClib/XMC_Peripheral_Library_v2.1.16/ThirdPartyLibraries/USBlib/USB/Core/XMC4000/USBController_XMC4000.c **** 			USBD_HandleEP0_SETUP();
 444:/opt/XMClib/XMC_Peripheral_Library_v2.1.16/ThirdPartyLibraries/USBlib/USB/Core/XMC4000/USBController_XMC4000.c **** 			break;
 445:/opt/XMClib/XMC_Peripheral_Library_v2.1.16/ThirdPartyLibraries/USBlib/USB/Core/XMC4000/USBController_XMC4000.c **** 		default:
 446:/opt/XMClib/XMC_Peripheral_Library_v2.1.16/ThirdPartyLibraries/USBlib/USB/Core/XMC4000/USBController_XMC4000.c **** 			break;
 447:/opt/XMClib/XMC_Peripheral_Library_v2.1.16/ThirdPartyLibraries/USBlib/USB/Core/XMC4000/USBController_XMC4000.c **** 		}
 448:/opt/XMClib/XMC_Peripheral_Library_v2.1.16/ThirdPartyLibraries/USBlib/USB/Core/XMC4000/USBController_XMC4000.c **** 		break;
 449:/opt/XMClib/XMC_Peripheral_Library_v2.1.16/ThirdPartyLibraries/USBlib/USB/Core/XMC4000/USBController_XMC4000.c **** 	case XMC_USBD_EP_EVENT_OUT:
 450:/opt/XMClib/XMC_Peripheral_Library_v2.1.16/ThirdPartyLibraries/USBlib/USB/Core/XMC4000/USBController_XMC4000.c **** 		ep->IsOutRecieved = 1;
 451:/opt/XMClib/XMC_Peripheral_Library_v2.1.16/ThirdPartyLibraries/USBlib/USB/Core/XMC4000/USBController_XMC4000.c **** 		if (ep->OutBytesAvailable == 0) {
 452:/opt/XMClib/XMC_Peripheral_Library_v2.1.16/ThirdPartyLibraries/USBlib/USB/Core/XMC4000/USBController_XMC4000.c **** 			ep->OutOffset = 0; /* clear offset, new data is there */
 453:/opt/XMClib/XMC_Peripheral_Library_v2.1.16/ThirdPartyLibraries/USBlib/USB/Core/XMC4000/USBController_XMC4000.c **** 			ep->OutBytesAvailable = device.Driver->EndpointRead(ep->Address,ep->OutBuffer,ep->OutBufferLengt
 454:/opt/XMClib/XMC_Peripheral_Library_v2.1.16/ThirdPartyLibraries/USBlib/USB/Core/XMC4000/USBController_XMC4000.c **** 		}
 455:/opt/XMClib/XMC_Peripheral_Library_v2.1.16/ThirdPartyLibraries/USBlib/USB/Core/XMC4000/USBController_XMC4000.c **** 		ep->OutInUse = 0;
 456:/opt/XMClib/XMC_Peripheral_Library_v2.1.16/ThirdPartyLibraries/USBlib/USB/Core/XMC4000/USBController_XMC4000.c **** 		switch(device.CurrentEndpoint) {
 457:/opt/XMClib/XMC_Peripheral_Library_v2.1.16/ThirdPartyLibraries/USBlib/USB/Core/XMC4000/USBController_XMC4000.c **** 		case 0:
 458:/opt/XMClib/XMC_Peripheral_Library_v2.1.16/ThirdPartyLibraries/USBlib/USB/Core/XMC4000/USBController_XMC4000.c **** 			USBD_HandleEP0_OUT();
 459:/opt/XMClib/XMC_Peripheral_Library_v2.1.16/ThirdPartyLibraries/USBlib/USB/Core/XMC4000/USBController_XMC4000.c **** 			break;
 460:/opt/XMClib/XMC_Peripheral_Library_v2.1.16/ThirdPartyLibraries/USBlib/USB/Core/XMC4000/USBController_XMC4000.c **** 		default:
 461:/opt/XMClib/XMC_Peripheral_Library_v2.1.16/ThirdPartyLibraries/USBlib/USB/Core/XMC4000/USBController_XMC4000.c **** 			break;
 462:/opt/XMClib/XMC_Peripheral_Library_v2.1.16/ThirdPartyLibraries/USBlib/USB/Core/XMC4000/USBController_XMC4000.c **** 		}
 463:/opt/XMClib/XMC_Peripheral_Library_v2.1.16/ThirdPartyLibraries/USBlib/USB/Core/XMC4000/USBController_XMC4000.c **** 		break;
 464:/opt/XMClib/XMC_Peripheral_Library_v2.1.16/ThirdPartyLibraries/USBlib/USB/Core/XMC4000/USBController_XMC4000.c **** 	case XMC_USBD_EP_EVENT_IN:
 465:/opt/XMClib/XMC_Peripheral_Library_v2.1.16/ThirdPartyLibraries/USBlib/USB/Core/XMC4000/USBController_XMC4000.c **** 		/* loop write transfers */
 466:/opt/XMClib/XMC_Peripheral_Library_v2.1.16/ThirdPartyLibraries/USBlib/USB/Core/XMC4000/USBController_XMC4000.c **** 		if (ep->InDataLeft> 0) {
 467:/opt/XMClib/XMC_Peripheral_Library_v2.1.16/ThirdPartyLibraries/USBlib/USB/Core/XMC4000/USBController_XMC4000.c **** 			data_count = device.Driver->EndpointWrite(ep->Address,ep->InDataBuffer,ep->InDataLeft);
 468:/opt/XMClib/XMC_Peripheral_Library_v2.1.16/ThirdPartyLibraries/USBlib/USB/Core/XMC4000/USBController_XMC4000.c **** 			ep->InDataLeft -= data_count;
 469:/opt/XMClib/XMC_Peripheral_Library_v2.1.16/ThirdPartyLibraries/USBlib/USB/Core/XMC4000/USBController_XMC4000.c **** 			ep->InDataBuffer+= data_count;
 470:/opt/XMClib/XMC_Peripheral_Library_v2.1.16/ThirdPartyLibraries/USBlib/USB/Core/XMC4000/USBController_XMC4000.c **** 			return;
 471:/opt/XMClib/XMC_Peripheral_Library_v2.1.16/ThirdPartyLibraries/USBlib/USB/Core/XMC4000/USBController_XMC4000.c **** 		} else if (ep->Number == 0 && ep->InBytesAvailable > 0 && ep->InBytesAvailable!=USB_ControlReques
 472:/opt/XMClib/XMC_Peripheral_Library_v2.1.16/ThirdPartyLibraries/USBlib/USB/Core/XMC4000/USBController_XMC4000.c **** 			/* if the amount of data for endpoint 0 is exact the requested amount, then no zlp has to be sen
 473:/opt/XMClib/XMC_Peripheral_Library_v2.1.16/ThirdPartyLibraries/USBlib/USB/Core/XMC4000/USBController_XMC4000.c **** 			device.Driver->EndpointWrite(ep->Address,0,0);
 474:/opt/XMClib/XMC_Peripheral_Library_v2.1.16/ThirdPartyLibraries/USBlib/USB/Core/XMC4000/USBController_XMC4000.c **** 		}
 475:/opt/XMClib/XMC_Peripheral_Library_v2.1.16/ThirdPartyLibraries/USBlib/USB/Core/XMC4000/USBController_XMC4000.c **** 		ep->InBytesAvailable = 0;
 476:/opt/XMClib/XMC_Peripheral_Library_v2.1.16/ThirdPartyLibraries/USBlib/USB/Core/XMC4000/USBController_XMC4000.c **** 		ep->InInUse = 0;
 477:/opt/XMClib/XMC_Peripheral_Library_v2.1.16/ThirdPartyLibraries/USBlib/USB/Core/XMC4000/USBController_XMC4000.c **** 		switch(device.CurrentEndpoint) {
 478:/opt/XMClib/XMC_Peripheral_Library_v2.1.16/ThirdPartyLibraries/USBlib/USB/Core/XMC4000/USBController_XMC4000.c **** 		case 0:
 479:/opt/XMClib/XMC_Peripheral_Library_v2.1.16/ThirdPartyLibraries/USBlib/USB/Core/XMC4000/USBController_XMC4000.c **** 			USBD_HandleEP0_IN();
 480:/opt/XMClib/XMC_Peripheral_Library_v2.1.16/ThirdPartyLibraries/USBlib/USB/Core/XMC4000/USBController_XMC4000.c **** 			break;
 481:/opt/XMClib/XMC_Peripheral_Library_v2.1.16/ThirdPartyLibraries/USBlib/USB/Core/XMC4000/USBController_XMC4000.c **** 		default:
 482:/opt/XMClib/XMC_Peripheral_Library_v2.1.16/ThirdPartyLibraries/USBlib/USB/Core/XMC4000/USBController_XMC4000.c **** 			break;
 483:/opt/XMClib/XMC_Peripheral_Library_v2.1.16/ThirdPartyLibraries/USBlib/USB/Core/XMC4000/USBController_XMC4000.c **** 		}
 484:/opt/XMClib/XMC_Peripheral_Library_v2.1.16/ThirdPartyLibraries/USBlib/USB/Core/XMC4000/USBController_XMC4000.c **** 		break;
 485:/opt/XMClib/XMC_Peripheral_Library_v2.1.16/ThirdPartyLibraries/USBlib/USB/Core/XMC4000/USBController_XMC4000.c **** 	}
 486:/opt/XMClib/XMC_Peripheral_Library_v2.1.16/ThirdPartyLibraries/USBlib/USB/Core/XMC4000/USBController_XMC4000.c **** 	device.CurrentEndpoint = temp_num;
 1327              		.loc 1 486 2 view .LVU406
 1328              		.loc 1 486 25 is_stmt 0 view .LVU407
 1329 0026 414B     		ldr	r3, .L111
 1330 0028 83F83C61 		strb	r6, [r3, #316]
 487:/opt/XMClib/XMC_Peripheral_Library_v2.1.16/ThirdPartyLibraries/USBlib/USB/Core/XMC4000/USBController_XMC4000.c **** 	device.CurrentDirection = temp_dir;
 1331              		.loc 1 487 2 is_stmt 1 view .LVU408
 1332              		.loc 1 487 26 is_stmt 0 view .LVU409
 1333 002c 83F83D51 		strb	r5, [r3, #317]
 1334              	.L100:
 488:/opt/XMClib/XMC_Peripheral_Library_v2.1.16/ThirdPartyLibraries/USBlib/USB/Core/XMC4000/USBController_XMC4000.c **** }
 1335              		.loc 1 488 1 view .LVU410
 1336 0030 F8BD     		pop	{r3, r4, r5, r6, r7, pc}
 1337              	.LVL89:
 1338              	.L109:
 440:/opt/XMClib/XMC_Peripheral_Library_v2.1.16/ThirdPartyLibraries/USBlib/USB/Core/XMC4000/USBController_XMC4000.c **** 		switch(device.CurrentEndpoint) {
 1339              		.loc 1 440 3 is_stmt 1 view .LVU411
 440:/opt/XMClib/XMC_Peripheral_Library_v2.1.16/ThirdPartyLibraries/USBlib/USB/Core/XMC4000/USBController_XMC4000.c **** 		switch(device.CurrentEndpoint) {
 1340              		.loc 1 440 16 is_stmt 0 view .LVU412
 1341 0032 2C22     		movs	r2, #44
 1342 0034 02FB0433 		mla	r3, r2, r4, r3
 1343 0038 1A89     		ldrh	r2, [r3, #8]
 1344 003a 6FF3C302 		bfc	r2, #3, #1
 1345 003e 1A81     		strh	r2, [r3, #8]	@ movhi
 441:/opt/XMClib/XMC_Peripheral_Library_v2.1.16/ThirdPartyLibraries/USBlib/USB/Core/XMC4000/USBController_XMC4000.c **** 		case 0:
 1346              		.loc 1 441 3 is_stmt 1 view .LVU413
 1347 0040 002C     		cmp	r4, #0
 1348 0042 F0D1     		bne	.L103
 443:/opt/XMClib/XMC_Peripheral_Library_v2.1.16/ThirdPartyLibraries/USBlib/USB/Core/XMC4000/USBController_XMC4000.c **** 			break;
 1349              		.loc 1 443 4 view .LVU414
 1350 0044 FFF7FEFF 		bl	USBD_HandleEP0_SETUP
 1351              	.LVL90:
 444:/opt/XMClib/XMC_Peripheral_Library_v2.1.16/ThirdPartyLibraries/USBlib/USB/Core/XMC4000/USBController_XMC4000.c **** 		default:
 1352              		.loc 1 444 4 view .LVU415
 1353 0048 EDE7     		b	.L103
 1354              	.LVL91:
 1355              	.L101:
 450:/opt/XMClib/XMC_Peripheral_Library_v2.1.16/ThirdPartyLibraries/USBlib/USB/Core/XMC4000/USBController_XMC4000.c **** 		if (ep->OutBytesAvailable == 0) {
 1356              		.loc 1 450 3 view .LVU416
 450:/opt/XMClib/XMC_Peripheral_Library_v2.1.16/ThirdPartyLibraries/USBlib/USB/Core/XMC4000/USBController_XMC4000.c **** 		if (ep->OutBytesAvailable == 0) {
 1357              		.loc 1 450 21 is_stmt 0 view .LVU417
 1358 004a 384B     		ldr	r3, .L111
 1359 004c 2C22     		movs	r2, #44
 1360 004e 02FB0433 		mla	r3, r2, r4, r3
 1361 0052 1A89     		ldrh	r2, [r3, #8]
 1362 0054 42F02002 		orr	r2, r2, #32
 1363 0058 1A81     		strh	r2, [r3, #8]	@ movhi
 451:/opt/XMClib/XMC_Peripheral_Library_v2.1.16/ThirdPartyLibraries/USBlib/USB/Core/XMC4000/USBController_XMC4000.c **** 			ep->OutOffset = 0; /* clear offset, new data is there */
 1364              		.loc 1 451 3 is_stmt 1 view .LVU418
 451:/opt/XMClib/XMC_Peripheral_Library_v2.1.16/ThirdPartyLibraries/USBlib/USB/Core/XMC4000/USBController_XMC4000.c **** 			ep->OutOffset = 0; /* clear offset, new data is there */
 1365              		.loc 1 451 6 is_stmt 0 view .LVU419
 1366 005a DB68     		ldr	r3, [r3, #12]
 1367 005c 63B9     		cbnz	r3, .L104
 452:/opt/XMClib/XMC_Peripheral_Library_v2.1.16/ThirdPartyLibraries/USBlib/USB/Core/XMC4000/USBController_XMC4000.c **** 			ep->OutBytesAvailable = device.Driver->EndpointRead(ep->Address,ep->OutBuffer,ep->OutBufferLengt
 1368              		.loc 1 452 4 is_stmt 1 view .LVU420
 452:/opt/XMClib/XMC_Peripheral_Library_v2.1.16/ThirdPartyLibraries/USBlib/USB/Core/XMC4000/USBController_XMC4000.c **** 			ep->OutBytesAvailable = device.Driver->EndpointRead(ep->Address,ep->OutBuffer,ep->OutBufferLengt
 1369              		.loc 1 452 18 is_stmt 0 view .LVU421
 1370 005e 334B     		ldr	r3, .L111
 1371 0060 2C27     		movs	r7, #44
 1372 0062 07FB0437 		mla	r7, r7, r4, r3
 1373 0066 0022     		movs	r2, #0
 1374 0068 3A61     		str	r2, [r7, #16]
 453:/opt/XMClib/XMC_Peripheral_Library_v2.1.16/ThirdPartyLibraries/USBlib/USB/Core/XMC4000/USBController_XMC4000.c **** 		}
 1375              		.loc 1 453 4 is_stmt 1 view .LVU422
 453:/opt/XMClib/XMC_Peripheral_Library_v2.1.16/ThirdPartyLibraries/USBlib/USB/Core/XMC4000/USBController_XMC4000.c **** 		}
 1376              		.loc 1 453 41 is_stmt 0 view .LVU423
 1377 006a 1B68     		ldr	r3, [r3]
 453:/opt/XMClib/XMC_Peripheral_Library_v2.1.16/ThirdPartyLibraries/USBlib/USB/Core/XMC4000/USBController_XMC4000.c **** 		}
 1378              		.loc 1 453 28 view .LVU424
 1379 006c DB6A     		ldr	r3, [r3, #44]
 1380 006e BA69     		ldr	r2, [r7, #24]
 1381 0070 7969     		ldr	r1, [r7, #20]
 1382              	.LVL92:
 453:/opt/XMClib/XMC_Peripheral_Library_v2.1.16/ThirdPartyLibraries/USBlib/USB/Core/XMC4000/USBController_XMC4000.c **** 		}
 1383              		.loc 1 453 28 view .LVU425
 1384 0072 3879     		ldrb	r0, [r7, #4]	@ zero_extendqisi2
 1385 0074 9847     		blx	r3
 1386              	.LVL93:
 453:/opt/XMClib/XMC_Peripheral_Library_v2.1.16/ThirdPartyLibraries/USBlib/USB/Core/XMC4000/USBController_XMC4000.c **** 		}
 1387              		.loc 1 453 26 view .LVU426
 1388 0076 F860     		str	r0, [r7, #12]
 1389              	.L104:
 455:/opt/XMClib/XMC_Peripheral_Library_v2.1.16/ThirdPartyLibraries/USBlib/USB/Core/XMC4000/USBController_XMC4000.c **** 		switch(device.CurrentEndpoint) {
 1390              		.loc 1 455 3 is_stmt 1 view .LVU427
 455:/opt/XMClib/XMC_Peripheral_Library_v2.1.16/ThirdPartyLibraries/USBlib/USB/Core/XMC4000/USBController_XMC4000.c **** 		switch(device.CurrentEndpoint) {
 1391              		.loc 1 455 16 is_stmt 0 view .LVU428
 1392 0078 2C4A     		ldr	r2, .L111
 1393 007a 2C23     		movs	r3, #44
 1394 007c 03FB0424 		mla	r4, r3, r4, r2
 1395              	.LVL94:
 455:/opt/XMClib/XMC_Peripheral_Library_v2.1.16/ThirdPartyLibraries/USBlib/USB/Core/XMC4000/USBController_XMC4000.c **** 		switch(device.CurrentEndpoint) {
 1396              		.loc 1 455 16 view .LVU429
 1397 0080 2389     		ldrh	r3, [r4, #8]
 1398 0082 6FF3C303 		bfc	r3, #3, #1
 1399 0086 2381     		strh	r3, [r4, #8]	@ movhi
 456:/opt/XMClib/XMC_Peripheral_Library_v2.1.16/ThirdPartyLibraries/USBlib/USB/Core/XMC4000/USBController_XMC4000.c **** 		case 0:
 1400              		.loc 1 456 3 is_stmt 1 view .LVU430
 1401 0088 92F83C31 		ldrb	r3, [r2, #316]	@ zero_extendqisi2
 1402 008c 002B     		cmp	r3, #0
 1403 008e CAD1     		bne	.L103
 458:/opt/XMClib/XMC_Peripheral_Library_v2.1.16/ThirdPartyLibraries/USBlib/USB/Core/XMC4000/USBController_XMC4000.c **** 			break;
 1404              		.loc 1 458 4 view .LVU431
 1405 0090 FFF7FEFF 		bl	USBD_HandleEP0_OUT
 1406              	.LVL95:
 459:/opt/XMClib/XMC_Peripheral_Library_v2.1.16/ThirdPartyLibraries/USBlib/USB/Core/XMC4000/USBController_XMC4000.c **** 		default:
 1407              		.loc 1 459 4 view .LVU432
 1408 0094 C7E7     		b	.L103
 1409              	.LVL96:
 1410              	.L102:
 466:/opt/XMClib/XMC_Peripheral_Library_v2.1.16/ThirdPartyLibraries/USBlib/USB/Core/XMC4000/USBController_XMC4000.c **** 			data_count = device.Driver->EndpointWrite(ep->Address,ep->InDataBuffer,ep->InDataLeft);
 1411              		.loc 1 466 3 view .LVU433
 466:/opt/XMClib/XMC_Peripheral_Library_v2.1.16/ThirdPartyLibraries/USBlib/USB/Core/XMC4000/USBController_XMC4000.c **** 			data_count = device.Driver->EndpointWrite(ep->Address,ep->InDataBuffer,ep->InDataLeft);
 1412              		.loc 1 466 9 is_stmt 0 view .LVU434
 1413 0096 254B     		ldr	r3, .L111
 1414 0098 2C22     		movs	r2, #44
 1415 009a 02FB0433 		mla	r3, r2, r4, r3
 1416 009e 9A6A     		ldr	r2, [r3, #40]
 466:/opt/XMClib/XMC_Peripheral_Library_v2.1.16/ThirdPartyLibraries/USBlib/USB/Core/XMC4000/USBController_XMC4000.c **** 			data_count = device.Driver->EndpointWrite(ep->Address,ep->InDataBuffer,ep->InDataLeft);
 1417              		.loc 1 466 6 view .LVU435
 1418 00a0 002A     		cmp	r2, #0
 1419 00a2 33D1     		bne	.L110
 471:/opt/XMClib/XMC_Peripheral_Library_v2.1.16/ThirdPartyLibraries/USBlib/USB/Core/XMC4000/USBController_XMC4000.c **** 			/* if the amount of data for endpoint 0 is exact the requested amount, then no zlp has to be sen
 1420              		.loc 1 471 10 is_stmt 1 view .LVU436
 471:/opt/XMClib/XMC_Peripheral_Library_v2.1.16/ThirdPartyLibraries/USBlib/USB/Core/XMC4000/USBController_XMC4000.c **** 			/* if the amount of data for endpoint 0 is exact the requested amount, then no zlp has to be sen
 1421              		.loc 1 471 25 is_stmt 0 view .LVU437
 1422 00a4 214B     		ldr	r3, .L111
 1423 00a6 2C22     		movs	r2, #44
 1424 00a8 02FB0433 		mla	r3, r2, r4, r3
 1425 00ac 1879     		ldrb	r0, [r3, #4]	@ zero_extendqisi2
 471:/opt/XMClib/XMC_Peripheral_Library_v2.1.16/ThirdPartyLibraries/USBlib/USB/Core/XMC4000/USBController_XMC4000.c **** 			/* if the amount of data for endpoint 0 is exact the requested amount, then no zlp has to be sen
 1426              		.loc 1 471 13 view .LVU438
 1427 00ae 10F00F0F 		tst	r0, #15
 1428 00b2 1AD1     		bne	.L107
 471:/opt/XMClib/XMC_Peripheral_Library_v2.1.16/ThirdPartyLibraries/USBlib/USB/Core/XMC4000/USBController_XMC4000.c **** 			/* if the amount of data for endpoint 0 is exact the requested amount, then no zlp has to be sen
 1429              		.loc 1 471 35 discriminator 1 view .LVU439
 1430 00b4 1D4B     		ldr	r3, .L111
 1431 00b6 02FB0433 		mla	r3, r2, r4, r3
 1432 00ba DB69     		ldr	r3, [r3, #28]
 471:/opt/XMClib/XMC_Peripheral_Library_v2.1.16/ThirdPartyLibraries/USBlib/USB/Core/XMC4000/USBController_XMC4000.c **** 			/* if the amount of data for endpoint 0 is exact the requested amount, then no zlp has to be sen
 1433              		.loc 1 471 30 discriminator 1 view .LVU440
 1434 00bc ABB1     		cbz	r3, .L107
 471:/opt/XMClib/XMC_Peripheral_Library_v2.1.16/ThirdPartyLibraries/USBlib/USB/Core/XMC4000/USBController_XMC4000.c **** 			/* if the amount of data for endpoint 0 is exact the requested amount, then no zlp has to be sen
 1435              		.loc 1 471 81 discriminator 2 view .LVU441
 1436 00be 1C4A     		ldr	r2, .L111+4
 1437 00c0 D288     		ldrh	r2, [r2, #6]	@ unaligned
 471:/opt/XMClib/XMC_Peripheral_Library_v2.1.16/ThirdPartyLibraries/USBlib/USB/Core/XMC4000/USBController_XMC4000.c **** 			/* if the amount of data for endpoint 0 is exact the requested amount, then no zlp has to be sen
 1438              		.loc 1 471 58 discriminator 2 view .LVU442
 1439 00c2 9342     		cmp	r3, r2
 1440 00c4 11D0     		beq	.L107
 471:/opt/XMClib/XMC_Peripheral_Library_v2.1.16/ThirdPartyLibraries/USBlib/USB/Core/XMC4000/USBController_XMC4000.c **** 			/* if the amount of data for endpoint 0 is exact the requested amount, then no zlp has to be sen
 1441              		.loc 1 471 138 discriminator 3 view .LVU443
 1442 00c6 194A     		ldr	r2, .L111
 1443 00c8 2C21     		movs	r1, #44
 1444              	.LVL97:
 471:/opt/XMClib/XMC_Peripheral_Library_v2.1.16/ThirdPartyLibraries/USBlib/USB/Core/XMC4000/USBController_XMC4000.c **** 			/* if the amount of data for endpoint 0 is exact the requested amount, then no zlp has to be sen
 1445              		.loc 1 471 138 discriminator 3 view .LVU444
 1446 00ca 01FB0422 		mla	r2, r1, r4, r2
 1447 00ce 1289     		ldrh	r2, [r2, #8]
 1448 00d0 C2F38612 		ubfx	r2, r2, #6, #7
 471:/opt/XMClib/XMC_Peripheral_Library_v2.1.16/ThirdPartyLibraries/USBlib/USB/Core/XMC4000/USBController_XMC4000.c **** 			/* if the amount of data for endpoint 0 is exact the requested amount, then no zlp has to be sen
 1449              		.loc 1 471 134 discriminator 3 view .LVU445
 1450 00d4 B3FBF2F1 		udiv	r1, r3, r2
 1451 00d8 02FB1133 		mls	r3, r2, r1, r3
 471:/opt/XMClib/XMC_Peripheral_Library_v2.1.16/ThirdPartyLibraries/USBlib/USB/Core/XMC4000/USBController_XMC4000.c **** 			/* if the amount of data for endpoint 0 is exact the requested amount, then no zlp has to be sen
 1452              		.loc 1 471 110 discriminator 3 view .LVU446
 1453 00dc 2BB9     		cbnz	r3, .L107
 473:/opt/XMClib/XMC_Peripheral_Library_v2.1.16/ThirdPartyLibraries/USBlib/USB/Core/XMC4000/USBController_XMC4000.c **** 		}
 1454              		.loc 1 473 4 is_stmt 1 view .LVU447
 473:/opt/XMClib/XMC_Peripheral_Library_v2.1.16/ThirdPartyLibraries/USBlib/USB/Core/XMC4000/USBController_XMC4000.c **** 		}
 1455              		.loc 1 473 10 is_stmt 0 view .LVU448
 1456 00de 134B     		ldr	r3, .L111
 473:/opt/XMClib/XMC_Peripheral_Library_v2.1.16/ThirdPartyLibraries/USBlib/USB/Core/XMC4000/USBController_XMC4000.c **** 		}
 1457              		.loc 1 473 17 view .LVU449
 1458 00e0 1B68     		ldr	r3, [r3]
 473:/opt/XMClib/XMC_Peripheral_Library_v2.1.16/ThirdPartyLibraries/USBlib/USB/Core/XMC4000/USBController_XMC4000.c **** 		}
 1459              		.loc 1 473 4 view .LVU450
 1460 00e2 1B6B     		ldr	r3, [r3, #48]
 1461 00e4 0022     		movs	r2, #0
 1462 00e6 1146     		mov	r1, r2
 1463 00e8 9847     		blx	r3
 1464              	.LVL98:
 1465              	.L107:
 475:/opt/XMClib/XMC_Peripheral_Library_v2.1.16/ThirdPartyLibraries/USBlib/USB/Core/XMC4000/USBController_XMC4000.c **** 		ep->InInUse = 0;
 1466              		.loc 1 475 3 is_stmt 1 view .LVU451
 475:/opt/XMClib/XMC_Peripheral_Library_v2.1.16/ThirdPartyLibraries/USBlib/USB/Core/XMC4000/USBController_XMC4000.c **** 		ep->InInUse = 0;
 1467              		.loc 1 475 24 is_stmt 0 view .LVU452
 1468 00ea 104B     		ldr	r3, .L111
 1469 00ec 2C22     		movs	r2, #44
 1470 00ee 02FB0434 		mla	r4, r2, r4, r3
 1471              	.LVL99:
 475:/opt/XMClib/XMC_Peripheral_Library_v2.1.16/ThirdPartyLibraries/USBlib/USB/Core/XMC4000/USBController_XMC4000.c **** 		ep->InInUse = 0;
 1472              		.loc 1 475 24 view .LVU453
 1473 00f2 0021     		movs	r1, #0
 1474 00f4 E161     		str	r1, [r4, #28]
 476:/opt/XMClib/XMC_Peripheral_Library_v2.1.16/ThirdPartyLibraries/USBlib/USB/Core/XMC4000/USBController_XMC4000.c **** 		switch(device.CurrentEndpoint) {
 1475              		.loc 1 476 3 is_stmt 1 view .LVU454
 476:/opt/XMClib/XMC_Peripheral_Library_v2.1.16/ThirdPartyLibraries/USBlib/USB/Core/XMC4000/USBController_XMC4000.c **** 		switch(device.CurrentEndpoint) {
 1476              		.loc 1 476 15 is_stmt 0 view .LVU455
 1477 00f6 2289     		ldrh	r2, [r4, #8]
 1478 00f8 61F30412 		bfi	r2, r1, #4, #1
 1479 00fc 2281     		strh	r2, [r4, #8]	@ movhi
 477:/opt/XMClib/XMC_Peripheral_Library_v2.1.16/ThirdPartyLibraries/USBlib/USB/Core/XMC4000/USBController_XMC4000.c **** 		case 0:
 1480              		.loc 1 477 3 is_stmt 1 view .LVU456
 1481 00fe 93F83C31 		ldrb	r3, [r3, #316]	@ zero_extendqisi2
 1482 0102 002B     		cmp	r3, #0
 1483 0104 8FD1     		bne	.L103
 479:/opt/XMClib/XMC_Peripheral_Library_v2.1.16/ThirdPartyLibraries/USBlib/USB/Core/XMC4000/USBController_XMC4000.c **** 			break;
 1484              		.loc 1 479 4 view .LVU457
 1485 0106 FFF7FEFF 		bl	USBD_HandleEP0_IN
 1486              	.LVL100:
 480:/opt/XMClib/XMC_Peripheral_Library_v2.1.16/ThirdPartyLibraries/USBlib/USB/Core/XMC4000/USBController_XMC4000.c **** 		default:
 1487              		.loc 1 480 4 view .LVU458
 1488 010a 8CE7     		b	.L103
 1489              	.LVL101:
 1490              	.L110:
 467:/opt/XMClib/XMC_Peripheral_Library_v2.1.16/ThirdPartyLibraries/USBlib/USB/Core/XMC4000/USBController_XMC4000.c **** 			ep->InDataLeft -= data_count;
 1491              		.loc 1 467 4 view .LVU459
 467:/opt/XMClib/XMC_Peripheral_Library_v2.1.16/ThirdPartyLibraries/USBlib/USB/Core/XMC4000/USBController_XMC4000.c **** 			ep->InDataLeft -= data_count;
 1492              		.loc 1 467 60 is_stmt 0 view .LVU460
 1493 010c 074B     		ldr	r3, .L111
 1494 010e 2C21     		movs	r1, #44
 1495              	.LVL102:
 467:/opt/XMClib/XMC_Peripheral_Library_v2.1.16/ThirdPartyLibraries/USBlib/USB/Core/XMC4000/USBController_XMC4000.c **** 			ep->InDataLeft -= data_count;
 1496              		.loc 1 467 60 view .LVU461
 1497 0110 01FB0434 		mla	r4, r1, r4, r3
 1498              	.LVL103:
 467:/opt/XMClib/XMC_Peripheral_Library_v2.1.16/ThirdPartyLibraries/USBlib/USB/Core/XMC4000/USBController_XMC4000.c **** 			ep->InDataLeft -= data_count;
 1499              		.loc 1 467 30 view .LVU462
 1500 0114 1B68     		ldr	r3, [r3]
 467:/opt/XMClib/XMC_Peripheral_Library_v2.1.16/ThirdPartyLibraries/USBlib/USB/Core/XMC4000/USBController_XMC4000.c **** 			ep->InDataLeft -= data_count;
 1501              		.loc 1 467 17 view .LVU463
 1502 0116 1B6B     		ldr	r3, [r3, #48]
 1503 0118 E16A     		ldr	r1, [r4, #44]
 1504 011a 2079     		ldrb	r0, [r4, #4]	@ zero_extendqisi2
 1505 011c 9847     		blx	r3
 1506              	.LVL104:
 468:/opt/XMClib/XMC_Peripheral_Library_v2.1.16/ThirdPartyLibraries/USBlib/USB/Core/XMC4000/USBController_XMC4000.c **** 			ep->InDataBuffer+= data_count;
 1507              		.loc 1 468 4 is_stmt 1 view .LVU464
 468:/opt/XMClib/XMC_Peripheral_Library_v2.1.16/ThirdPartyLibraries/USBlib/USB/Core/XMC4000/USBController_XMC4000.c **** 			ep->InDataBuffer+= data_count;
 1508              		.loc 1 468 19 is_stmt 0 view .LVU465
 1509 011e A36A     		ldr	r3, [r4, #40]
 1510 0120 1B1A     		subs	r3, r3, r0
 1511 0122 A362     		str	r3, [r4, #40]
 469:/opt/XMClib/XMC_Peripheral_Library_v2.1.16/ThirdPartyLibraries/USBlib/USB/Core/XMC4000/USBController_XMC4000.c **** 			return;
 1512              		.loc 1 469 4 is_stmt 1 view .LVU466
 469:/opt/XMClib/XMC_Peripheral_Library_v2.1.16/ThirdPartyLibraries/USBlib/USB/Core/XMC4000/USBController_XMC4000.c **** 			return;
 1513              		.loc 1 469 20 is_stmt 0 view .LVU467
 1514 0124 E36A     		ldr	r3, [r4, #44]
 1515 0126 1844     		add	r0, r0, r3
 1516              	.LVL105:
 469:/opt/XMClib/XMC_Peripheral_Library_v2.1.16/ThirdPartyLibraries/USBlib/USB/Core/XMC4000/USBController_XMC4000.c **** 			return;
 1517              		.loc 1 469 20 view .LVU468
 1518 0128 E062     		str	r0, [r4, #44]
 470:/opt/XMClib/XMC_Peripheral_Library_v2.1.16/ThirdPartyLibraries/USBlib/USB/Core/XMC4000/USBController_XMC4000.c **** 		} else if (ep->Number == 0 && ep->InBytesAvailable > 0 && ep->InBytesAvailable!=USB_ControlReques
 1519              		.loc 1 470 4 is_stmt 1 view .LVU469
 1520 012a 81E7     		b	.L100
 1521              	.L112:
 1522              		.align	2
 1523              	.L111:
 1524 012c 00000000 		.word	.LANCHOR0
 1525 0130 00000000 		.word	USB_ControlRequest
 1526              		.cfi_endproc
 1527              	.LFE194:
 1529              		.section	.text.USBD_Initialize,"ax",%progbits
 1530              		.align	1
 1531              		.global	USBD_Initialize
 1532              		.syntax unified
 1533              		.thumb
 1534              		.thumb_func
 1536              	USBD_Initialize:
 1537              	.LVL106:
 1538              	.LFB195:
 489:/opt/XMClib/XMC_Peripheral_Library_v2.1.16/ThirdPartyLibraries/USBlib/USB/Core/XMC4000/USBController_XMC4000.c **** 
 490:/opt/XMClib/XMC_Peripheral_Library_v2.1.16/ThirdPartyLibraries/USBlib/USB/Core/XMC4000/USBController_XMC4000.c **** /**
 491:/opt/XMClib/XMC_Peripheral_Library_v2.1.16/ThirdPartyLibraries/USBlib/USB/Core/XMC4000/USBController_XMC4000.c ****  * \brief Initialize driver core and driver
 492:/opt/XMClib/XMC_Peripheral_Library_v2.1.16/ThirdPartyLibraries/USBlib/USB/Core/XMC4000/USBController_XMC4000.c ****  *
 493:/opt/XMClib/XMC_Peripheral_Library_v2.1.16/ThirdPartyLibraries/USBlib/USB/Core/XMC4000/USBController_XMC4000.c ****  * Intializes the USB driver core data structures and sets it into default state. Afterwards
 494:/opt/XMClib/XMC_Peripheral_Library_v2.1.16/ThirdPartyLibraries/USBlib/USB/Core/XMC4000/USBController_XMC4000.c ****  * it initializes the USB device controller driver and prepare it for connection via \ref USBD_Conn
 495:/opt/XMClib/XMC_Peripheral_Library_v2.1.16/ThirdPartyLibraries/USBlib/USB/Core/XMC4000/USBController_XMC4000.c ****  */
 496:/opt/XMClib/XMC_Peripheral_Library_v2.1.16/ThirdPartyLibraries/USBlib/USB/Core/XMC4000/USBController_XMC4000.c **** int USBD_Initialize(XMC_USBD_t *usb_init) {
 1539              		.loc 1 496 43 view -0
 1540              		.cfi_startproc
 1541              		@ args = 0, pretend = 0, frame = 0
 1542              		@ frame_needed = 0, uses_anonymous_args = 0
 1543              		.loc 1 496 43 is_stmt 0 view .LVU471
 1544 0000 38B5     		push	{r3, r4, r5, lr}
 1545              	.LCFI10:
 1546              		.cfi_def_cfa_offset 16
 1547              		.cfi_offset 3, -16
 1548              		.cfi_offset 4, -12
 1549              		.cfi_offset 5, -8
 1550              		.cfi_offset 14, -4
 1551 0002 0546     		mov	r5, r0
 497:/opt/XMClib/XMC_Peripheral_Library_v2.1.16/ThirdPartyLibraries/USBlib/USB/Core/XMC4000/USBController_XMC4000.c **** 	int32_t status = 0;
 1552              		.loc 1 497 2 is_stmt 1 view .LVU472
 1553              	.LVL107:
 498:/opt/XMClib/XMC_Peripheral_Library_v2.1.16/ThirdPartyLibraries/USBlib/USB/Core/XMC4000/USBController_XMC4000.c **** 	memset(&device,0x0,sizeof(USB_Device_t));
 1554              		.loc 1 498 2 view .LVU473
 1555 0004 174C     		ldr	r4, .L117
 1556 0006 4FF4A072 		mov	r2, #320
 1557 000a 0021     		movs	r1, #0
 1558 000c 2046     		mov	r0, r4
 1559              	.LVL108:
 1560              		.loc 1 498 2 is_stmt 0 view .LVU474
 1561 000e FFF7FEFF 		bl	memset
 1562              	.LVL109:
 499:/opt/XMClib/XMC_Peripheral_Library_v2.1.16/ThirdPartyLibraries/USBlib/USB/Core/XMC4000/USBController_XMC4000.c **** 	USB_DeviceState = DEVICE_STATE_Unattached;
 1563              		.loc 1 499 2 is_stmt 1 view .LVU475
 1564              		.loc 1 499 18 is_stmt 0 view .LVU476
 1565 0012 154B     		ldr	r3, .L117+4
 1566 0014 0022     		movs	r2, #0
 1567 0016 1A70     		strb	r2, [r3]
 500:/opt/XMClib/XMC_Peripheral_Library_v2.1.16/ThirdPartyLibraries/USBlib/USB/Core/XMC4000/USBController_XMC4000.c **** 	device.Driver = &Driver_USBD0;
 1568              		.loc 1 500 2 is_stmt 1 view .LVU477
 1569              		.loc 1 500 16 is_stmt 0 view .LVU478
 1570 0018 144B     		ldr	r3, .L117+8
 1571 001a 2360     		str	r3, [r4]
 501:/opt/XMClib/XMC_Peripheral_Library_v2.1.16/ThirdPartyLibraries/USBlib/USB/Core/XMC4000/USBController_XMC4000.c **** 	device.EP0_State = IDLE;
 1572              		.loc 1 501 2 is_stmt 1 view .LVU479
 1573              		.loc 1 501 19 is_stmt 0 view .LVU480
 1574 001c 0122     		movs	r2, #1
 1575 001e 84F83B21 		strb	r2, [r4, #315]
 502:/opt/XMClib/XMC_Peripheral_Library_v2.1.16/ThirdPartyLibraries/USBlib/USB/Core/XMC4000/USBController_XMC4000.c **** 	device.Endpoints[0].InBuffer = endpoint0_in_buffer;
 1576              		.loc 1 502 2 is_stmt 1 view .LVU481
 1577              		.loc 1 502 31 is_stmt 0 view .LVU482
 1578 0022 04F5A072 		add	r2, r4, #320
 1579 0026 2262     		str	r2, [r4, #32]
 503:/opt/XMClib/XMC_Peripheral_Library_v2.1.16/ThirdPartyLibraries/USBlib/USB/Core/XMC4000/USBController_XMC4000.c **** 	device.Endpoints[0].InBufferLength = 256;
 1580              		.loc 1 503 2 is_stmt 1 view .LVU483
 1581              		.loc 1 503 37 is_stmt 0 view .LVU484
 1582 0028 4FF48072 		mov	r2, #256
 1583 002c 6262     		str	r2, [r4, #36]
 504:/opt/XMClib/XMC_Peripheral_Library_v2.1.16/ThirdPartyLibraries/USBlib/USB/Core/XMC4000/USBController_XMC4000.c **** 	device.Endpoints[0].OutBuffer = endpoint0_out_buffer;
 1584              		.loc 1 504 2 is_stmt 1 view .LVU485
 1585              		.loc 1 504 32 is_stmt 0 view .LVU486
 1586 002e 04F51071 		add	r1, r4, #576
 1587 0032 6161     		str	r1, [r4, #20]
 505:/opt/XMClib/XMC_Peripheral_Library_v2.1.16/ThirdPartyLibraries/USBlib/USB/Core/XMC4000/USBController_XMC4000.c **** 	device.Endpoints[0].OutBufferLength = 256;
 1588              		.loc 1 505 2 is_stmt 1 view .LVU487
 1589              		.loc 1 505 38 is_stmt 0 view .LVU488
 1590 0034 A261     		str	r2, [r4, #24]
 506:/opt/XMClib/XMC_Peripheral_Library_v2.1.16/ThirdPartyLibraries/USBlib/USB/Core/XMC4000/USBController_XMC4000.c **** 	device.Endpoints[0].Direction = 0;
 1591              		.loc 1 506 2 is_stmt 1 view .LVU489
 507:/opt/XMClib/XMC_Peripheral_Library_v2.1.16/ThirdPartyLibraries/USBlib/USB/Core/XMC4000/USBController_XMC4000.c **** 	device.Endpoints[0].IsConfigured = 1;
 1592              		.loc 1 507 2 view .LVU490
 508:/opt/XMClib/XMC_Peripheral_Library_v2.1.16/ThirdPartyLibraries/USBlib/USB/Core/XMC4000/USBController_XMC4000.c **** 	device.Endpoints[0].IsEnabled = 1;
 1593              		.loc 1 508 2 view .LVU491
 1594              		.loc 1 508 32 is_stmt 0 view .LVU492
 1595 0036 0322     		movs	r2, #3
 1596 0038 2272     		strb	r2, [r4, #8]
 509:/opt/XMClib/XMC_Peripheral_Library_v2.1.16/ThirdPartyLibraries/USBlib/USB/Core/XMC4000/USBController_XMC4000.c **** 	device.Endpoints[0].MaxPacketSize = 64;
 1597              		.loc 1 509 2 is_stmt 1 view .LVU493
 1598              		.loc 1 509 36 is_stmt 0 view .LVU494
 1599 003a 2289     		ldrh	r2, [r4, #8]
 1600 003c 4021     		movs	r1, #64
 1601 003e 61F38C12 		bfi	r2, r1, #6, #7
 1602 0042 2281     		strh	r2, [r4, #8]	@ movhi
 510:/opt/XMClib/XMC_Peripheral_Library_v2.1.16/ThirdPartyLibraries/USBlib/USB/Core/XMC4000/USBController_XMC4000.c **** 
 511:/opt/XMClib/XMC_Peripheral_Library_v2.1.16/ThirdPartyLibraries/USBlib/USB/Core/XMC4000/USBController_XMC4000.c **** 	/* First initalize the device */
 512:/opt/XMClib/XMC_Peripheral_Library_v2.1.16/ThirdPartyLibraries/USBlib/USB/Core/XMC4000/USBController_XMC4000.c **** 	status = device.Driver->Initialize(usb_init);
 1603              		.loc 1 512 2 is_stmt 1 view .LVU495
 1604              		.loc 1 512 11 is_stmt 0 view .LVU496
 1605 0044 5B68     		ldr	r3, [r3, #4]
 1606 0046 2846     		mov	r0, r5
 1607 0048 9847     		blx	r3
 1608              	.LVL110:
 513:/opt/XMClib/XMC_Peripheral_Library_v2.1.16/ThirdPartyLibraries/USBlib/USB/Core/XMC4000/USBController_XMC4000.c **** 	if (status != XMC_USBD_STATUS_OK)
 1609              		.loc 1 513 2 is_stmt 1 view .LVU497
 1610              		.loc 1 513 5 is_stmt 0 view .LVU498
 1611 004a 38B9     		cbnz	r0, .L115
 514:/opt/XMClib/XMC_Peripheral_Library_v2.1.16/ThirdPartyLibraries/USBlib/USB/Core/XMC4000/USBController_XMC4000.c **** 		return -1;
 515:/opt/XMClib/XMC_Peripheral_Library_v2.1.16/ThirdPartyLibraries/USBlib/USB/Core/XMC4000/USBController_XMC4000.c **** 
 516:/opt/XMClib/XMC_Peripheral_Library_v2.1.16/ThirdPartyLibraries/USBlib/USB/Core/XMC4000/USBController_XMC4000.c **** 	/* then configure endpoint 0 */
 517:/opt/XMClib/XMC_Peripheral_Library_v2.1.16/ThirdPartyLibraries/USBlib/USB/Core/XMC4000/USBController_XMC4000.c **** 	device.Driver->EndpointConfigure(0,XMC_USBD_ENDPOINT_TYPE_CONTROL,
 1612              		.loc 1 517 2 is_stmt 1 view .LVU499
 1613              		.loc 1 517 15 is_stmt 0 view .LVU500
 1614 004c 2368     		ldr	r3, [r4]
 1615              		.loc 1 517 2 view .LVU501
 1616 004e DB69     		ldr	r3, [r3, #28]
 1617 0050 4022     		movs	r2, #64
 1618 0052 0021     		movs	r1, #0
 1619 0054 0846     		mov	r0, r1
 1620              	.LVL111:
 1621              		.loc 1 517 2 view .LVU502
 1622 0056 9847     		blx	r3
 1623              	.LVL112:
 518:/opt/XMClib/XMC_Peripheral_Library_v2.1.16/ThirdPartyLibraries/USBlib/USB/Core/XMC4000/USBController_XMC4000.c **** 			(uint8_t)XMC_USBD_MAX_PACKET_SIZE);
 519:/opt/XMClib/XMC_Peripheral_Library_v2.1.16/ThirdPartyLibraries/USBlib/USB/Core/XMC4000/USBController_XMC4000.c **** 	if (status != XMC_USBD_STATUS_OK) {
 1624              		.loc 1 519 2 is_stmt 1 view .LVU503
 520:/opt/XMClib/XMC_Peripheral_Library_v2.1.16/ThirdPartyLibraries/USBlib/USB/Core/XMC4000/USBController_XMC4000.c **** 		device.Driver->Uninitialize();
 521:/opt/XMClib/XMC_Peripheral_Library_v2.1.16/ThirdPartyLibraries/USBlib/USB/Core/XMC4000/USBController_XMC4000.c **** 		return -1;
 522:/opt/XMClib/XMC_Peripheral_Library_v2.1.16/ThirdPartyLibraries/USBlib/USB/Core/XMC4000/USBController_XMC4000.c **** 	}
 523:/opt/XMClib/XMC_Peripheral_Library_v2.1.16/ThirdPartyLibraries/USBlib/USB/Core/XMC4000/USBController_XMC4000.c **** 
 524:/opt/XMClib/XMC_Peripheral_Library_v2.1.16/ThirdPartyLibraries/USBlib/USB/Core/XMC4000/USBController_XMC4000.c **** 	return 0;
 1625              		.loc 1 524 9 is_stmt 0 view .LVU504
 1626 0058 0020     		movs	r0, #0
 1627              	.L113:
 525:/opt/XMClib/XMC_Peripheral_Library_v2.1.16/ThirdPartyLibraries/USBlib/USB/Core/XMC4000/USBController_XMC4000.c **** }
 1628              		.loc 1 525 1 view .LVU505
 1629 005a 38BD     		pop	{r3, r4, r5, pc}
 1630              	.LVL113:
 1631              	.L115:
 514:/opt/XMClib/XMC_Peripheral_Library_v2.1.16/ThirdPartyLibraries/USBlib/USB/Core/XMC4000/USBController_XMC4000.c **** 
 1632              		.loc 1 514 10 view .LVU506
 1633 005c 4FF0FF30 		mov	r0, #-1
 1634              	.LVL114:
 514:/opt/XMClib/XMC_Peripheral_Library_v2.1.16/ThirdPartyLibraries/USBlib/USB/Core/XMC4000/USBController_XMC4000.c **** 
 1635              		.loc 1 514 10 view .LVU507
 1636 0060 FBE7     		b	.L113
 1637              	.L118:
 1638 0062 00BF     		.align	2
 1639              	.L117:
 1640 0064 00000000 		.word	.LANCHOR0
 1641 0068 00000000 		.word	USB_DeviceState
 1642 006c 00000000 		.word	Driver_USBD0
 1643              		.cfi_endproc
 1644              	.LFE195:
 1646              		.section	.text.USB_IsEnumDone,"ax",%progbits
 1647              		.align	1
 1648              		.global	USB_IsEnumDone
 1649              		.syntax unified
 1650              		.thumb
 1651              		.thumb_func
 1653              	USB_IsEnumDone:
 1654              	.LFB196:
 526:/opt/XMClib/XMC_Peripheral_Library_v2.1.16/ThirdPartyLibraries/USBlib/USB/Core/XMC4000/USBController_XMC4000.c **** 
 527:/opt/XMClib/XMC_Peripheral_Library_v2.1.16/ThirdPartyLibraries/USBlib/USB/Core/XMC4000/USBController_XMC4000.c **** /**
 528:/opt/XMClib/XMC_Peripheral_Library_v2.1.16/ThirdPartyLibraries/USBlib/USB/Core/XMC4000/USBController_XMC4000.c ****  * \brief Is the enumeration finished?
 529:/opt/XMClib/XMC_Peripheral_Library_v2.1.16/ThirdPartyLibraries/USBlib/USB/Core/XMC4000/USBController_XMC4000.c ****  *
 530:/opt/XMClib/XMC_Peripheral_Library_v2.1.16/ThirdPartyLibraries/USBlib/USB/Core/XMC4000/USBController_XMC4000.c ****  * Tell the USB device controller driver if the enumeration interrupt have been reached
 531:/opt/XMClib/XMC_Peripheral_Library_v2.1.16/ThirdPartyLibraries/USBlib/USB/Core/XMC4000/USBController_XMC4000.c ****  */
 532:/opt/XMClib/XMC_Peripheral_Library_v2.1.16/ThirdPartyLibraries/USBlib/USB/Core/XMC4000/USBController_XMC4000.c **** int USB_IsEnumDone(void){
 1655              		.loc 1 532 25 is_stmt 1 view -0
 1656              		.cfi_startproc
 1657              		@ args = 0, pretend = 0, frame = 0
 1658              		@ frame_needed = 0, uses_anonymous_args = 0
 1659 0000 08B5     		push	{r3, lr}
 1660              	.LCFI11:
 1661              		.cfi_def_cfa_offset 8
 1662              		.cfi_offset 3, -8
 1663              		.cfi_offset 14, -4
 533:/opt/XMClib/XMC_Peripheral_Library_v2.1.16/ThirdPartyLibraries/USBlib/USB/Core/XMC4000/USBController_XMC4000.c **** 	if (device.Driver->IsEnumDone())
 1664              		.loc 1 533 2 view .LVU509
 1665              		.loc 1 533 12 is_stmt 0 view .LVU510
 1666 0002 044B     		ldr	r3, .L121
 1667              		.loc 1 533 19 view .LVU511
 1668 0004 1B68     		ldr	r3, [r3]
 1669              		.loc 1 533 6 view .LVU512
 1670 0006 DB6B     		ldr	r3, [r3, #60]
 1671 0008 9847     		blx	r3
 1672              	.LVL115:
 534:/opt/XMClib/XMC_Peripheral_Library_v2.1.16/ThirdPartyLibraries/USBlib/USB/Core/XMC4000/USBController_XMC4000.c **** 		return 1;
 535:/opt/XMClib/XMC_Peripheral_Library_v2.1.16/ThirdPartyLibraries/USBlib/USB/Core/XMC4000/USBController_XMC4000.c **** 	else
 536:/opt/XMClib/XMC_Peripheral_Library_v2.1.16/ThirdPartyLibraries/USBlib/USB/Core/XMC4000/USBController_XMC4000.c **** 		return 0;
 537:/opt/XMClib/XMC_Peripheral_Library_v2.1.16/ThirdPartyLibraries/USBlib/USB/Core/XMC4000/USBController_XMC4000.c ****  }
 1673              		.loc 1 537 2 view .LVU513
 1674 000a 0038     		subs	r0, r0, #0
 1675 000c 18BF     		it	ne
 1676 000e 0120     		movne	r0, #1
 1677 0010 08BD     		pop	{r3, pc}
 1678              	.L122:
 1679 0012 00BF     		.align	2
 1680              	.L121:
 1681 0014 00000000 		.word	.LANCHOR0
 1682              		.cfi_endproc
 1683              	.LFE196:
 1685              		.section	.text.USBD_SetEndpointBuffer,"ax",%progbits
 1686              		.align	1
 1687              		.global	USBD_SetEndpointBuffer
 1688              		.syntax unified
 1689              		.thumb
 1690              		.thumb_func
 1692              	USBD_SetEndpointBuffer:
 1693              	.LVL116:
 1694              	.LFB197:
 538:/opt/XMClib/XMC_Peripheral_Library_v2.1.16/ThirdPartyLibraries/USBlib/USB/Core/XMC4000/USBController_XMC4000.c **** 
 539:/opt/XMClib/XMC_Peripheral_Library_v2.1.16/ThirdPartyLibraries/USBlib/USB/Core/XMC4000/USBController_XMC4000.c **** 
 540:/opt/XMClib/XMC_Peripheral_Library_v2.1.16/ThirdPartyLibraries/USBlib/USB/Core/XMC4000/USBController_XMC4000.c **** /**
 541:/opt/XMClib/XMC_Peripheral_Library_v2.1.16/ThirdPartyLibraries/USBlib/USB/Core/XMC4000/USBController_XMC4000.c ****  * \brief Set the buffer for an endpoint
 542:/opt/XMClib/XMC_Peripheral_Library_v2.1.16/ThirdPartyLibraries/USBlib/USB/Core/XMC4000/USBController_XMC4000.c ****  *
 543:/opt/XMClib/XMC_Peripheral_Library_v2.1.16/ThirdPartyLibraries/USBlib/USB/Core/XMC4000/USBController_XMC4000.c ****  * The user has to ensure the an endpoint has a valid buffer set
 544:/opt/XMClib/XMC_Peripheral_Library_v2.1.16/ThirdPartyLibraries/USBlib/USB/Core/XMC4000/USBController_XMC4000.c ****  * in order to ensure proper work.
 545:/opt/XMClib/XMC_Peripheral_Library_v2.1.16/ThirdPartyLibraries/USBlib/USB/Core/XMC4000/USBController_XMC4000.c ****  *
 546:/opt/XMClib/XMC_Peripheral_Library_v2.1.16/ThirdPartyLibraries/USBlib/USB/Core/XMC4000/USBController_XMC4000.c ****  * \param[in] addr Endpoint address
 547:/opt/XMClib/XMC_Peripheral_Library_v2.1.16/ThirdPartyLibraries/USBlib/USB/Core/XMC4000/USBController_XMC4000.c ****  * \param[in] buf Buffer pointer
 548:/opt/XMClib/XMC_Peripheral_Library_v2.1.16/ThirdPartyLibraries/USBlib/USB/Core/XMC4000/USBController_XMC4000.c ****  * \param[in] len Buffer length
 549:/opt/XMClib/XMC_Peripheral_Library_v2.1.16/ThirdPartyLibraries/USBlib/USB/Core/XMC4000/USBController_XMC4000.c ****  */
 550:/opt/XMClib/XMC_Peripheral_Library_v2.1.16/ThirdPartyLibraries/USBlib/USB/Core/XMC4000/USBController_XMC4000.c **** void USBD_SetEndpointBuffer(uint8_t addr,uint8_t *buf,uint16_t len) {
 1695              		.loc 1 550 69 is_stmt 1 view -0
 1696              		.cfi_startproc
 1697              		@ args = 0, pretend = 0, frame = 0
 1698              		@ frame_needed = 0, uses_anonymous_args = 0
 1699              		@ link register save eliminated.
 551:/opt/XMClib/XMC_Peripheral_Library_v2.1.16/ThirdPartyLibraries/USBlib/USB/Core/XMC4000/USBController_XMC4000.c **** 	uint8_t number  = addr & ENDPOINT_EPNUM_MASK;
 1700              		.loc 1 551 2 view .LVU515
 1701              		.loc 1 551 10 is_stmt 0 view .LVU516
 1702 0000 00F00F0C 		and	ip, r0, #15
 1703              	.LVL117:
 552:/opt/XMClib/XMC_Peripheral_Library_v2.1.16/ThirdPartyLibraries/USBlib/USB/Core/XMC4000/USBController_XMC4000.c **** 	if (addr & ENDPOINT_DIR_MASK) {
 1704              		.loc 1 552 2 is_stmt 1 view .LVU517
 1705              		.loc 1 552 5 is_stmt 0 view .LVU518
 1706 0004 10F0800F 		tst	r0, #128
 553:/opt/XMClib/XMC_Peripheral_Library_v2.1.16/ThirdPartyLibraries/USBlib/USB/Core/XMC4000/USBController_XMC4000.c **** 		device.Endpoints[number].InBuffer = buf;
 1707              		.loc 1 553 3 is_stmt 1 view .LVU519
 1708              		.loc 1 553 37 is_stmt 0 view .LVU520
 1709 0008 054B     		ldr	r3, .L126
 1710 000a 4FF02C00 		mov	r0, #44
 1711              	.LVL118:
 1712              		.loc 1 553 37 view .LVU521
 1713 000e 00FB0C33 		mla	r3, r0, ip, r3
 1714 0012 19BF     		ittee	ne
 1715 0014 1962     		strne	r1, [r3, #32]
 554:/opt/XMClib/XMC_Peripheral_Library_v2.1.16/ThirdPartyLibraries/USBlib/USB/Core/XMC4000/USBController_XMC4000.c **** 		device.Endpoints[number].InBufferLength = len;
 1716              		.loc 1 554 3 is_stmt 1 view .LVU522
 1717              		.loc 1 554 43 is_stmt 0 view .LVU523
 1718 0016 5A62     		strne	r2, [r3, #36]
 555:/opt/XMClib/XMC_Peripheral_Library_v2.1.16/ThirdPartyLibraries/USBlib/USB/Core/XMC4000/USBController_XMC4000.c **** 	} else {
 556:/opt/XMClib/XMC_Peripheral_Library_v2.1.16/ThirdPartyLibraries/USBlib/USB/Core/XMC4000/USBController_XMC4000.c **** 		device.Endpoints[number].OutBuffer = buf;
 1719              		.loc 1 556 3 is_stmt 1 view .LVU524
 1720              		.loc 1 556 38 is_stmt 0 view .LVU525
 1721 0018 5961     		streq	r1, [r3, #20]
 557:/opt/XMClib/XMC_Peripheral_Library_v2.1.16/ThirdPartyLibraries/USBlib/USB/Core/XMC4000/USBController_XMC4000.c **** 		device.Endpoints[number].OutBufferLength = len;
 1722              		.loc 1 557 3 is_stmt 1 view .LVU526
 1723              		.loc 1 557 44 is_stmt 0 view .LVU527
 1724 001a 9A61     		streq	r2, [r3, #24]
 558:/opt/XMClib/XMC_Peripheral_Library_v2.1.16/ThirdPartyLibraries/USBlib/USB/Core/XMC4000/USBController_XMC4000.c **** 	}
 559:/opt/XMClib/XMC_Peripheral_Library_v2.1.16/ThirdPartyLibraries/USBlib/USB/Core/XMC4000/USBController_XMC4000.c **** }
 1725              		.loc 1 559 1 view .LVU528
 1726 001c 7047     		bx	lr
 1727              	.L127:
 1728 001e 00BF     		.align	2
 1729              	.L126:
 1730 0020 00000000 		.word	.LANCHOR0
 1731              		.cfi_endproc
 1732              	.LFE197:
 1734              		.global	endpoint0_out_buffer
 1735              		.global	endpoint0_in_buffer
 1736              		.global	device
 1737              		.bss
 1738              		.align	2
 1739              		.set	.LANCHOR0,. + 0
 1742              	device:
 1743 0000 00000000 		.space	320
 1743      00000000 
 1743      00000000 
 1743      00000000 
 1743      00000000 
 1746              	endpoint0_in_buffer:
 1747 0140 00000000 		.space	256
 1747      00000000 
 1747      00000000 
 1747      00000000 
 1747      00000000 
 1750              	endpoint0_out_buffer:
 1751 0240 00000000 		.space	256
 1751      00000000 
 1751      00000000 
 1751      00000000 
 1751      00000000 
 1752              		.text
 1753              	.Letext0:
 1754              		.file 2 "/nas/ei/share/tools/gcc/gcc-arm/gcc-arm-none-eabi-10.3-2021.10/arm-none-eabi/include/mach
 1755              		.file 3 "/nas/ei/share/tools/gcc/gcc-arm/gcc-arm-none-eabi-10.3-2021.10/arm-none-eabi/include/sys/
 1756              		.file 4 "/opt/XMClib/XMC_Peripheral_Library_v2.1.16/CMSIS/Infineon/XMC4500_series/Include/XMC4500.
 1757              		.file 5 "/opt/XMClib/XMC_Peripheral_Library_v2.1.16/XMCLib/inc/xmc_usbd.h"
 1758              		.file 6 "/opt/XMClib/XMC_Peripheral_Library_v2.1.16/ThirdPartyLibraries/USBlib/USB/Core/XMC4000/..
 1759              		.file 7 "/opt/XMClib/XMC_Peripheral_Library_v2.1.16/ThirdPartyLibraries/USBlib/USB/Core/XMC4000/..
 1760              		.file 8 "/opt/XMClib/XMC_Peripheral_Library_v2.1.16/ThirdPartyLibraries/USBlib/USB/Core/XMC4000/..
 1761              		.file 9 "/opt/XMClib/XMC_Peripheral_Library_v2.1.16/ThirdPartyLibraries/USBlib/USB/Core/XMC4000/..
 1762              		.file 10 "/opt/XMClib/XMC_Peripheral_Library_v2.1.16/ThirdPartyLibraries/USBlib/USB/Core/XMC4000/.
 1763              		.file 11 "<built-in>"